   1              		.cpu arm926ej-s
   2              		.fpu softvfp
   3              		.eabi_attribute 20, 1
   4              		.eabi_attribute 21, 1
   5              		.eabi_attribute 23, 3
   6              		.eabi_attribute 24, 1
   7              		.eabi_attribute 25, 1
   8              		.eabi_attribute 26, 1
   9              		.eabi_attribute 30, 4
  10              		.eabi_attribute 34, 0
  11              		.eabi_attribute 18, 4
  12              		.file	"cyfxconfigfpga.c"
  13              		.text
  14              		.align	2
  15              		.global	CyFxConfigFpga
  17              	CyFxConfigFpga:
  18              		@ args = 0, pretend = 0, frame = 24
  19              		@ frame_needed = 0, uses_anonymous_args = 0
  20 0000 F0432DE9 		stmfd	sp!, {r4, r5, r6, r7, r8, r9, lr}
  21 0004 4C129FE5 		ldr	r1, .L18
  22 0008 0070A0E1 		mov	r7, r0
  23 000c 1CD04DE2 		sub	sp, sp, #28
  24 0010 0720A0E1 		mov	r2, r7
  25 0014 0600A0E3 		mov	r0, #6
  26 0018 FEFFFFEB 		bl	CyU3PDebugPrint
  27 001c 3400A0E3 		mov	r0, #52
  28 0020 08108DE2 		add	r1, sp, #8
  29 0024 FEFFFFEB 		bl	CyU3PGpioSimpleGetValue
  30 0028 08409DE5 		ldr	r4, [sp, #8]
  31 002c 0400A0E3 		mov	r0, #4
  32 0030 000054E3 		cmp	r4, #0
  33 0034 0500001A 		bne	.L2
  34 0038 1C129FE5 		ldr	r1, .L18+4
  35 003c FEFFFFEB 		bl	CyU3PDebugPrint
  36 0040 18329FE5 		ldr	r3, .L18+8
  37 0044 0000A0E3 		mov	r0, #0
  38 0048 004083E5 		str	r4, [r3]
  39 004c 7F0000EA 		b	.L3
  40              	.L2:
  41 0050 0C129FE5 		ldr	r1, .L18+12
  42 0054 FEFFFFEB 		bl	CyU3PDebugPrint
  43 0058 0000A0E3 		mov	r0, #0
  44 005c FEFFFFEB 		bl	CyU3PSpiSetSsnLine
  45 0060 08108DE2 		add	r1, sp, #8
  46 0064 0050A0E1 		mov	r5, r0
  47 0068 3400A0E3 		mov	r0, #52
  48 006c FEFFFFEB 		bl	CyU3PGpioSimpleGetValue
  49 0070 08309DE5 		ldr	r3, [sp, #8]
  50 0074 000053E3 		cmp	r3, #0
  51 0078 0800000A 		beq	.L4
  52 007c 0520A0E1 		mov	r2, r5
  53 0080 0400A0E3 		mov	r0, #4
  54 0084 DC119FE5 		ldr	r1, .L18+16
  55 0088 FEFFFFEB 		bl	CyU3PDebugPrint
  56 008c CC319FE5 		ldr	r3, .L18+8
  57 0090 0020A0E3 		mov	r2, #0
  58 0094 002083E5 		str	r2, [r3]
  59 0098 0500A0E1 		mov	r0, r5
  60 009c 6B0000EA 		b	.L3
  61              	.L4:
  62 00a0 0A00A0E3 		mov	r0, #10
  63 00a4 FEFFFFEB 		bl	_tx_thread_sleep
  64 00a8 BC119FE5 		ldr	r1, .L18+20
  65 00ac 0400A0E3 		mov	r0, #4
  66 00b0 FEFFFFEB 		bl	CyU3PDebugPrint
  67 00b4 0100A0E3 		mov	r0, #1
  68 00b8 FEFFFFEB 		bl	CyU3PSpiSetSsnLine
  69 00bc 0040A0E1 		mov	r4, r0
  70 00c0 0A00A0E3 		mov	r0, #10
  71 00c4 FEFFFFEB 		bl	_tx_thread_sleep
  72 00c8 A0119FE5 		ldr	r1, .L18+24
  73 00cc 0400A0E3 		mov	r0, #4
  74 00d0 FEFFFFEB 		bl	CyU3PDebugPrint
  75 00d4 3400A0E3 		mov	r0, #52
  76 00d8 08108DE2 		add	r1, sp, #8
  77 00dc FEFFFFEB 		bl	CyU3PGpioSimpleGetValue
  78 00e0 08309DE5 		ldr	r3, [sp, #8]
  79 00e4 010053E3 		cmp	r3, #1
  80 00e8 000084E1 		orr	r0, r4, r0
  81 00ec 054080E1 		orr	r4, r0, r5
  82 00f0 0400A0E3 		mov	r0, #4
  83 00f4 0100001A 		bne	.L5
  84 00f8 000054E3 		cmp	r4, #0
  85 00fc 0100000A 		beq	.L6
  86              	.L5:
  87 0100 6C119FE5 		ldr	r1, .L18+28
  88 0104 4E0000EA 		b	.L16
  89              	.L6:
  90 0108 68119FE5 		ldr	r1, .L18+32
  91 010c FEFFFFEB 		bl	CyU3PDebugPrint
  92 0110 64919FE5 		ldr	r9, .L18+36
  93 0114 64819FE5 		ldr	r8, .L18+40
  94 0118 0450A0E1 		mov	r5, r4
  95              	.L7:
  96 011c 070055E1 		cmp	r5, r7
  97 0120 2C00002A 		bcs	.L12
  98 0124 003099E5 		ldr	r3, [r9]
  99 0128 000053E3 		cmp	r3, #0
 100 012c 2900000A 		beq	.L12
 101 0130 4C019FE5 		ldr	r0, .L18+44
 102 0134 0C108DE2 		add	r1, sp, #12
 103 0138 7D2EA0E3 		mov	r2, #2000
 104 013c FEFFFFEB 		bl	CyU3PDmaChannelGetBuffer
 105 0140 004050E2 		subs	r4, r0, #0
 106 0144 0700000A 		beq	.L8
 107 0148 10319FE5 		ldr	r3, .L18+8
 108 014c 450054E3 		cmp	r4, #69
 109 0150 0020A0E3 		mov	r2, #0
 110 0154 002083E5 		str	r2, [r3]
 111 0158 0400A0E3 		mov	r0, #4
 112 015c 24119F05 		ldreq	r1, .L18+48
 113 0160 24119F15 		ldrne	r1, .L18+52
 114 0164 360000EA 		b	.L16
 115              	.L8:
 116 0168 0C009DE5 		ldr	r0, [sp, #12]
 117 016c B010D8E1 		ldrh	r1, [r8]
 118 0170 FEFFFFEB 		bl	CyU3PSpiTransmitWords
 119 0174 006050E2 		subs	r6, r0, #0
 120 0178 0700000A 		beq	.L10
 121 017c DC309FE5 		ldr	r3, .L18+8
 122 0180 0400A0E3 		mov	r0, #4
 123 0184 04119FE5 		ldr	r1, .L18+56
 124 0188 0620A0E1 		mov	r2, r6
 125 018c 004083E5 		str	r4, [r3]
 126 0190 FEFFFFEB 		bl	CyU3PDebugPrint
 127 0194 0600A0E1 		mov	r0, r6
 128 0198 2C0000EA 		b	.L3
 129              	.L10:
 130 019c E0009FE5 		ldr	r0, .L18+44
 131 01a0 FEFFFFEB 		bl	CyU3PDmaChannelDiscardBuffer
 132 01a4 000050E3 		cmp	r0, #0
 133 01a8 0700000A 		beq	.L11
 134 01ac AC309FE5 		ldr	r3, .L18+8
 135 01b0 0400A0E3 		mov	r0, #4
 136 01b4 D8109FE5 		ldr	r1, .L18+60
 137 01b8 4520A0E3 		mov	r2, #69
 138 01bc 006083E5 		str	r6, [r3]
 139 01c0 FEFFFFEB 		bl	CyU3PDebugPrint
 140 01c4 4500A0E3 		mov	r0, #69
 141 01c8 200000EA 		b	.L3
 142              	.L11:
 143 01cc B030D8E1 		ldrh	r3, [r8]
 144 01d0 035085E0 		add	r5, r5, r3
 145 01d4 D0FFFFEA 		b	.L7
 146              	.L12:
 147 01d8 0100A0E3 		mov	r0, #1
 148 01dc FEFFFFEB 		bl	_tx_thread_sleep
 149 01e0 B0109FE5 		ldr	r1, .L18+64
 150 01e4 0400A0E3 		mov	r0, #4
 151 01e8 FEFFFFEB 		bl	CyU3PDebugPrint
 152 01ec 3200A0E3 		mov	r0, #50
 153 01f0 04108DE2 		add	r1, sp, #4
 154 01f4 FEFFFFEB 		bl	CyU3PGpioSimpleGetValue
 155 01f8 04309DE5 		ldr	r3, [sp, #4]
 156 01fc 010053E3 		cmp	r3, #1
 157 0200 0040A0E1 		mov	r4, r0
 158 0204 0800000A 		beq	.L14
 159 0208 50309FE5 		ldr	r3, .L18+8
 160 020c 0020A0E3 		mov	r2, #0
 161 0210 002083E5 		str	r2, [r3]
 162 0214 0400A0E3 		mov	r0, #4
 163 0218 7C109FE5 		ldr	r1, .L18+68
 164 021c 4A20A0E3 		mov	r2, #74
 165 0220 FEFFFFEB 		bl	CyU3PDebugPrint
 166 0224 4A40A0E3 		mov	r4, #74
 167 0228 030000EA 		b	.L15
 168              	.L14:
 169 022c 000050E3 		cmp	r0, #0
 170 0230 0400A003 		moveq	r0, #4
 171 0234 64109F05 		ldreq	r1, .L18+72
 172 0238 0100000A 		beq	.L16
 173              	.L15:
 174 023c 60109FE5 		ldr	r1, .L18+76
 175 0240 0400A0E3 		mov	r0, #4
 176              	.L16:
 177 0244 0420A0E1 		mov	r2, r4
 178 0248 FEFFFFEB 		bl	CyU3PDebugPrint
 179 024c 0400A0E1 		mov	r0, r4
 180              	.L3:
 181 0250 1CD08DE2 		add	sp, sp, #28
 182              		@ sp needed
 183 0254 F083BDE8 		ldmfd	sp!, {r4, r5, r6, r7, r8, r9, pc}
 184              	.L19:
 185              		.align	2
 186              	.L18:
 187 0258 00000000 		.word	.LC0
 188 025c 14000000 		.word	.LC1
 189 0260 00000000 		.word	.LANCHOR0
 190 0264 40000000 		.word	.LC2
 191 0268 69000000 		.word	.LC3
 192 026c A0000000 		.word	.LC4
 193 0270 BD000000 		.word	.LC5
 194 0274 F3000000 		.word	.LC6
 195 0278 1D010000 		.word	.LC7
 196 027c 00000000 		.word	glIsApplnActive
 197 0280 00000000 		.word	.LANCHOR1
 198 0284 00000000 		.word	glChHandleUtoCPU
 199 0288 49010000 		.word	.LC8
 200 028c 91010000 		.word	.LC9
 201 0290 C7010000 		.word	.LC10
 202 0294 F8010000 		.word	.LC11
 203 0298 2D020000 		.word	.LC12
 204 029c 49020000 		.word	.LC13
 205 02a0 75020000 		.word	.LC14
 206 02a4 AB020000 		.word	.LC15
 208              		.align	2
 209              		.global	CyFxConfigFpgaApplnStart
 211              	CyFxConfigFpgaApplnStart:
 212              		@ args = 0, pretend = 0, frame = 40
 213              		@ frame_needed = 0, uses_anonymous_args = 0
 214 02a8 30402DE9 		stmfd	sp!, {r4, r5, lr}
 215 02ac 2CD04DE2 		sub	sp, sp, #44
 216 02b0 FEFFFFEB 		bl	CyU3PUsbGetSpeed
 217 02b4 88119FE5 		ldr	r1, .L39
 218 02b8 0040A0E1 		mov	r4, r0
 219 02bc 0100A0E3 		mov	r0, #1
 220 02c0 FEFFFFEB 		bl	CyU3PDebugPrint
 221 02c4 020054E3 		cmp	r4, #2
 222 02c8 0800000A 		beq	.L22
 223 02cc 030054E3 		cmp	r4, #3
 224 02d0 0B00000A 		beq	.L23
 225 02d4 010054E3 		cmp	r4, #1
 226 02d8 0E00001A 		bne	.L38
 227 02dc 0600A0E3 		mov	r0, #6
 228 02e0 60119FE5 		ldr	r1, .L39+4
 229 02e4 FEFFFFEB 		bl	CyU3PDebugPrint
 230 02e8 4040A0E3 		mov	r4, #64
 231 02ec 0F0000EA 		b	.L25
 232              	.L22:
 233 02f0 0600A0E3 		mov	r0, #6
 234 02f4 50119FE5 		ldr	r1, .L39+8
 235 02f8 FEFFFFEB 		bl	CyU3PDebugPrint
 236 02fc 024CA0E3 		mov	r4, #512
 237 0300 0A0000EA 		b	.L25
 238              	.L23:
 239 0304 0600A0E3 		mov	r0, #6
 240 0308 40119FE5 		ldr	r1, .L39+12
 241 030c FEFFFFEB 		bl	CyU3PDebugPrint
 242 0310 014BA0E3 		mov	r4, #1024
 243 0314 050000EA 		b	.L25
 244              	.L38:
 245 0318 34119FE5 		ldr	r1, .L39+16
 246 031c 0400A0E3 		mov	r0, #4
 247 0320 FEFFFFEB 		bl	CyU3PDebugPrint
 248 0324 4A00A0E3 		mov	r0, #74
 249 0328 FEFFFFEB 		bl	CyFxAppErrorHandler
 250 032c 0040A0E3 		mov	r4, #0
 251              	.L25:
 252 0330 0D00A0E1 		mov	r0, sp
 253 0334 0010A0E3 		mov	r1, #0
 254 0338 0C20A0E3 		mov	r2, #12
 255 033c FEFFFFEB 		bl	CyU3PMemSet
 256 0340 0230A0E3 		mov	r3, #2
 257 0344 0430CDE5 		strb	r3, [sp, #4]
 258 0348 0030A0E3 		mov	r3, #0
 259 034c B630CDE1 		strh	r3, [sp, #6]	@ movhi
 260 0350 00319FE5 		ldr	r3, .L39+20
 261 0354 0100A0E3 		mov	r0, #1
 262 0358 0D10A0E1 		mov	r1, sp
 263 035c 00008DE5 		str	r0, [sp]
 264 0360 0A00CDE5 		strb	r0, [sp, #10]
 265 0364 B840CDE1 		strh	r4, [sp, #8]	@ movhi
 266 0368 B040C3E1 		strh	r4, [r3]	@ movhi
 267 036c FEFFFFEB 		bl	CyU3PSetEpConfig
 268 0370 005050E2 		subs	r5, r0, #0
 269 0374 0500000A 		beq	.L26
 270 0378 0400A0E3 		mov	r0, #4
 271 037c D8109FE5 		ldr	r1, .L39+24
 272 0380 0520A0E1 		mov	r2, r5
 273 0384 FEFFFFEB 		bl	CyU3PDebugPrint
 274 0388 0500A0E1 		mov	r0, r5
 275 038c FEFFFFEB 		bl	CyFxAppErrorHandler
 276              	.L26:
 277 0390 1030A0E3 		mov	r3, #16
 278 0394 BE30CDE1 		strh	r3, [sp, #14]	@ movhi
 279 0398 C0309FE5 		ldr	r3, .L39+28
 280 039c C0009FE5 		ldr	r0, .L39+32
 281 03a0 B031CDE1 		strh	r3, [sp, #16]	@ movhi
 282 03a4 3F3CA0E3 		mov	r3, #16128
 283 03a8 B231CDE1 		strh	r3, [sp, #18]	@ movhi
 284 03ac 0310A0E3 		mov	r1, #3
 285 03b0 0030A0E3 		mov	r3, #0
 286 03b4 0C208DE2 		add	r2, sp, #12
 287 03b8 BC40CDE1 		strh	r4, [sp, #12]	@ movhi
 288 03bc 1C30CDE5 		strb	r3, [sp, #28]
 289 03c0 20308DE5 		str	r3, [sp, #32]
 290 03c4 24308DE5 		str	r3, [sp, #36]
 291 03c8 B631CDE1 		strh	r3, [sp, #22]	@ movhi
 292 03cc B831CDE1 		strh	r3, [sp, #24]	@ movhi
 293 03d0 BA31CDE1 		strh	r3, [sp, #26]	@ movhi
 294 03d4 B431CDE1 		strh	r3, [sp, #20]	@ movhi
 295 03d8 FEFFFFEB 		bl	CyU3PDmaChannelCreate
 296 03dc 004050E2 		subs	r4, r0, #0
 297 03e0 0500000A 		beq	.L27
 298 03e4 0400A0E3 		mov	r0, #4
 299 03e8 78109FE5 		ldr	r1, .L39+36
 300 03ec 0420A0E1 		mov	r2, r4
 301 03f0 FEFFFFEB 		bl	CyU3PDebugPrint
 302 03f4 0400A0E1 		mov	r0, r4
 303 03f8 FEFFFFEB 		bl	CyFxAppErrorHandler
 304              	.L27:
 305 03fc 0100A0E3 		mov	r0, #1
 306 0400 FEFFFFEB 		bl	CyU3PUsbFlushEp
 307 0404 58009FE5 		ldr	r0, .L39+32
 308 0408 0010A0E3 		mov	r1, #0
 309 040c FEFFFFEB 		bl	CyU3PDmaChannelSetXfer
 310 0410 004050E2 		subs	r4, r0, #0
 311 0414 0500000A 		beq	.L28
 312 0418 0400A0E3 		mov	r0, #4
 313 041c 48109FE5 		ldr	r1, .L39+40
 314 0420 0420A0E1 		mov	r2, r4
 315 0424 FEFFFFEB 		bl	CyU3PDebugPrint
 316 0428 0400A0E1 		mov	r0, r4
 317 042c FEFFFFEB 		bl	CyFxAppErrorHandler
 318              	.L28:
 319 0430 38309FE5 		ldr	r3, .L39+44
 320 0434 0120A0E3 		mov	r2, #1
 321 0438 002083E5 		str	r2, [r3]
 322 043c 2CD08DE2 		add	sp, sp, #44
 323              		@ sp needed
 324 0440 3080BDE8 		ldmfd	sp!, {r4, r5, pc}
 325              	.L40:
 326              		.align	2
 327              	.L39:
 328 0444 DA020000 		.word	.LC16
 329 0448 12030000 		.word	.LC17
 330 044c 86030000 		.word	.LC18
 331 0450 FA030000 		.word	.LC19
 332 0454 1A040000 		.word	.LC20
 333 0458 00000000 		.word	.LANCHOR1
 334 045c 37040000 		.word	.LC21
 335 0460 01040000 		.word	1025
 336 0464 00000000 		.word	glChHandleUtoCPU
 337 0468 63040000 		.word	.LC22
 338 046c 94040000 		.word	.LC23
 339 0470 00000000 		.word	glIsApplnActive
 341              		.align	2
 342              		.global	CyFxConfigFpgaApplnStop
 344              	CyFxConfigFpgaApplnStop:
 345              		@ args = 0, pretend = 0, frame = 0
 346              		@ frame_needed = 0, uses_anonymous_args = 0
 347 0474 08402DE9 		stmfd	sp!, {r3, lr}
 348 0478 FEFFFFEB 		bl	CyU3PGpioDeInit
 349 047c FEFFFFEB 		bl	CyU3PSpiDeInit
 350 0480 24309FE5 		ldr	r3, .L42
 351 0484 0020A0E3 		mov	r2, #0
 352 0488 20109FE5 		ldr	r1, .L42+4
 353 048c 0100A0E3 		mov	r0, #1
 354 0490 002083E5 		str	r2, [r3]
 355 0494 FEFFFFEB 		bl	CyU3PUsbGetEpSeqNum
 356 0498 0100A0E3 		mov	r0, #1
 357 049c FEFFFFEB 		bl	CyU3PUsbFlushEp
 358 04a0 0C009FE5 		ldr	r0, .L42+8
 359 04a4 0840BDE8 		ldmfd	sp!, {r3, lr}
 360 04a8 FEFFFFEA 		b	CyU3PDmaChannelDestroy
 361              	.L43:
 362              		.align	2
 363              	.L42:
 364 04ac 00000000 		.word	glIsApplnActive
 365 04b0 00000000 		.word	seqnum_p
 366 04b4 00000000 		.word	glChHandleUtoCPU
 368              		.align	2
 369              		.global	CyFxConfigFpgaApplnInit
 371              	CyFxConfigFpgaApplnInit:
 372              		@ args = 0, pretend = 0, frame = 64
 373              		@ frame_needed = 0, uses_anonymous_args = 0
 374 04b8 10402DE9 		stmfd	sp!, {r4, lr}
 375 04bc AC039FE5 		ldr	r0, .L117
 376 04c0 2820A0E3 		mov	r2, #40
 377 04c4 40D04DE2 		sub	sp, sp, #64
 378 04c8 0010A0E3 		mov	r1, #0
 379 04cc FEFFFFEB 		bl	_txe_event_flags_create
 380 04d0 002050E2 		subs	r2, r0, #0
 381 04d4 0200000A 		beq	.L45
 382 04d8 0400A0E3 		mov	r0, #4
 383 04dc 90139FE5 		ldr	r1, .L117+4
 384 04e0 FEFFFFEB 		bl	CyU3PDebugPrint
 385              	.L45:
 386 04e4 FEFFFFEB 		bl	CyU3PSpiInit
 387 04e8 002050E2 		subs	r2, r0, #0
 388 04ec 0200000A 		beq	.L46
 389 04f0 0400A0E3 		mov	r0, #4
 390 04f4 7C139FE5 		ldr	r1, .L117+8
 391 04f8 FEFFFFEB 		bl	CyU3PDebugPrint
 392              	.L46:
 393 04fc 1C20A0E3 		mov	r2, #28
 394 0500 24008DE2 		add	r0, sp, #36
 395 0504 0010A0E3 		mov	r1, #0
 396 0508 FEFFFFEB 		bl	CyU3PMemSet
 397 050c 0130A0E3 		mov	r3, #1
 398 0510 28308DE5 		str	r3, [sp, #40]
 399 0514 2C308DE5 		str	r3, [sp, #44]
 400 0518 3530CDE5 		strb	r3, [sp, #53]
 401 051c 3630CDE5 		strb	r3, [sp, #54]
 402 0520 54339FE5 		ldr	r3, .L117+12
 403 0524 0010A0E3 		mov	r1, #0
 404 0528 38308DE5 		str	r3, [sp, #56]
 405 052c 24008DE2 		add	r0, sp, #36
 406 0530 0830A0E3 		mov	r3, #8
 407 0534 24108DE5 		str	r1, [sp, #36]
 408 0538 30108DE5 		str	r1, [sp, #48]
 409 053c 3410CDE5 		strb	r1, [sp, #52]
 410 0540 3C30CDE5 		strb	r3, [sp, #60]
 411 0544 FEFFFFEB 		bl	CyU3PSpiSetConfig
 412 0548 002050E2 		subs	r2, r0, #0
 413 054c 0200000A 		beq	.L47
 414 0550 0400A0E3 		mov	r0, #4
 415 0554 24139FE5 		ldr	r1, .L117+16
 416 0558 FEFFFFEB 		bl	CyU3PDebugPrint
 417              	.L47:
 418 055c 0230A0E3 		mov	r3, #2
 419 0560 0010A0E3 		mov	r1, #0
 420 0564 0430CDE5 		strb	r3, [sp, #4]
 421 0568 04008DE2 		add	r0, sp, #4
 422 056c 0330A0E3 		mov	r3, #3
 423 0570 0510CDE5 		strb	r1, [sp, #5]
 424 0574 0C10CDE5 		strb	r1, [sp, #12]
 425 0578 0D30CDE5 		strb	r3, [sp, #13]
 426 057c 08108DE5 		str	r1, [sp, #8]
 427 0580 FEFFFFEB 		bl	CyU3PGpioInit
 428 0584 004050E2 		subs	r4, r0, #0
 429 0588 0500000A 		beq	.L48
 430 058c 0400A0E3 		mov	r0, #4
 431 0590 EC129FE5 		ldr	r1, .L117+20
 432 0594 0420A0E1 		mov	r2, r4
 433 0598 FEFFFFEB 		bl	CyU3PDebugPrint
 434 059c 0400A0E1 		mov	r0, r4
 435 05a0 FEFFFFEB 		bl	CyFxAppErrorHandler
 436              	.L48:
 437 05a4 0130A0E3 		mov	r3, #1
 438 05a8 10308DE5 		str	r3, [sp, #16]
 439 05ac 1C308DE5 		str	r3, [sp, #28]
 440 05b0 0030A0E3 		mov	r3, #0
 441 05b4 14308DE5 		str	r3, [sp, #20]
 442 05b8 18308DE5 		str	r3, [sp, #24]
 443 05bc 3400A0E3 		mov	r0, #52
 444 05c0 0330A0E3 		mov	r3, #3
 445 05c4 10108DE2 		add	r1, sp, #16
 446 05c8 2030CDE5 		strb	r3, [sp, #32]
 447 05cc FEFFFFEB 		bl	CyU3PGpioSetSimpleConfig
 448 05d0 004050E2 		subs	r4, r0, #0
 449 05d4 0500000A 		beq	.L49
 450 05d8 0400A0E3 		mov	r0, #4
 451 05dc A4129FE5 		ldr	r1, .L117+24
 452 05e0 0420A0E1 		mov	r2, r4
 453 05e4 FEFFFFEB 		bl	CyU3PDebugPrint
 454 05e8 0400A0E1 		mov	r0, r4
 455 05ec FEFFFFEB 		bl	CyFxAppErrorHandler
 456              	.L49:
 457 05f0 3200A0E3 		mov	r0, #50
 458 05f4 10108DE2 		add	r1, sp, #16
 459 05f8 FEFFFFEB 		bl	CyU3PGpioSetSimpleConfig
 460 05fc 004050E2 		subs	r4, r0, #0
 461 0600 0500000A 		beq	.L50
 462 0604 0400A0E3 		mov	r0, #4
 463 0608 78129FE5 		ldr	r1, .L117+24
 464 060c 0420A0E1 		mov	r2, r4
 465 0610 FEFFFFEB 		bl	CyU3PDebugPrint
 466 0614 0400A0E1 		mov	r0, r4
 467 0618 FEFFFFEB 		bl	CyFxAppErrorHandler
 468              	.L50:
 469 061c FEFFFFEB 		bl	CyU3PUsbStart
 470 0620 004050E2 		subs	r4, r0, #0
 471 0624 0500000A 		beq	.L51
 472 0628 0400A0E3 		mov	r0, #4
 473 062c 58129FE5 		ldr	r1, .L117+28
 474 0630 0420A0E1 		mov	r2, r4
 475 0634 FEFFFFEB 		bl	CyU3PDebugPrint
 476 0638 0400A0E1 		mov	r0, r4
 477 063c FEFFFFEB 		bl	CyFxAppErrorHandler
 478              	.L51:
 479 0640 0110A0E3 		mov	r1, #1
 480 0644 44029FE5 		ldr	r0, .L117+32
 481 0648 FEFFFFEB 		bl	CyU3PUsbRegisterSetupCallback
 482 064c 40029FE5 		ldr	r0, .L117+36
 483 0650 FEFFFFEB 		bl	CyU3PUsbRegisterEventCallback
 484 0654 3C029FE5 		ldr	r0, .L117+40
 485 0658 FEFFFFEB 		bl	CyU3PUsbRegisterLPMRequestCallback
 486 065c 0000A0E3 		mov	r0, #0
 487 0660 0010A0E1 		mov	r1, r0
 488 0664 30229FE5 		ldr	r2, .L117+44
 489 0668 FEFFFFEB 		bl	CyU3PUsbSetDesc
 490 066c 004050E2 		subs	r4, r0, #0
 491 0670 0500000A 		beq	.L52
 492 0674 0400A0E3 		mov	r0, #4
 493 0678 20129FE5 		ldr	r1, .L117+48
 494 067c 0420A0E1 		mov	r2, r4
 495 0680 FEFFFFEB 		bl	CyU3PDebugPrint
 496 0684 0400A0E1 		mov	r0, r4
 497 0688 FEFFFFEB 		bl	CyFxAppErrorHandler
 498              	.L52:
 499 068c 0100A0E3 		mov	r0, #1
 500 0690 0010A0E3 		mov	r1, #0
 501 0694 08229FE5 		ldr	r2, .L117+52
 502 0698 FEFFFFEB 		bl	CyU3PUsbSetDesc
 503 069c 004050E2 		subs	r4, r0, #0
 504 06a0 0500000A 		beq	.L53
 505 06a4 0400A0E3 		mov	r0, #4
 506 06a8 F0119FE5 		ldr	r1, .L117+48
 507 06ac 0420A0E1 		mov	r2, r4
 508 06b0 FEFFFFEB 		bl	CyU3PDebugPrint
 509 06b4 0400A0E1 		mov	r0, r4
 510 06b8 FEFFFFEB 		bl	CyFxAppErrorHandler
 511              	.L53:
 512 06bc 0700A0E3 		mov	r0, #7
 513 06c0 0010A0E3 		mov	r1, #0
 514 06c4 DC219FE5 		ldr	r2, .L117+56
 515 06c8 FEFFFFEB 		bl	CyU3PUsbSetDesc
 516 06cc 004050E2 		subs	r4, r0, #0
 517 06d0 0500000A 		beq	.L54
 518 06d4 0400A0E3 		mov	r0, #4
 519 06d8 CC119FE5 		ldr	r1, .L117+60
 520 06dc 0420A0E1 		mov	r2, r4
 521 06e0 FEFFFFEB 		bl	CyU3PDebugPrint
 522 06e4 0400A0E1 		mov	r0, r4
 523 06e8 FEFFFFEB 		bl	CyFxAppErrorHandler
 524              	.L54:
 525 06ec 0200A0E3 		mov	r0, #2
 526 06f0 0010A0E3 		mov	r1, #0
 527 06f4 B4219FE5 		ldr	r2, .L117+64
 528 06f8 FEFFFFEB 		bl	CyU3PUsbSetDesc
 529 06fc 004050E2 		subs	r4, r0, #0
 530 0700 0500000A 		beq	.L55
 531 0704 0400A0E3 		mov	r0, #4
 532 0708 A4119FE5 		ldr	r1, .L117+68
 533 070c 0420A0E1 		mov	r2, r4
 534 0710 FEFFFFEB 		bl	CyU3PDebugPrint
 535 0714 0400A0E1 		mov	r0, r4
 536 0718 FEFFFFEB 		bl	CyFxAppErrorHandler
 537              	.L55:
 538 071c 0600A0E3 		mov	r0, #6
 539 0720 0010A0E3 		mov	r1, #0
 540 0724 8C219FE5 		ldr	r2, .L117+72
 541 0728 FEFFFFEB 		bl	CyU3PUsbSetDesc
 542 072c 004050E2 		subs	r4, r0, #0
 543 0730 0500000A 		beq	.L56
 544 0734 0400A0E3 		mov	r0, #4
 545 0738 6C119FE5 		ldr	r1, .L117+60
 546 073c 0420A0E1 		mov	r2, r4
 547 0740 FEFFFFEB 		bl	CyU3PDebugPrint
 548 0744 0400A0E1 		mov	r0, r4
 549 0748 FEFFFFEB 		bl	CyFxAppErrorHandler
 550              	.L56:
 551 074c 0400A0E3 		mov	r0, #4
 552 0750 0010A0E3 		mov	r1, #0
 553 0754 60219FE5 		ldr	r2, .L117+76
 554 0758 FEFFFFEB 		bl	CyU3PUsbSetDesc
 555 075c 004050E2 		subs	r4, r0, #0
 556 0760 0500000A 		beq	.L57
 557 0764 0400A0E3 		mov	r0, #4
 558 0768 50119FE5 		ldr	r1, .L117+80
 559 076c 0420A0E1 		mov	r2, r4
 560 0770 FEFFFFEB 		bl	CyU3PDebugPrint
 561 0774 0400A0E1 		mov	r0, r4
 562 0778 FEFFFFEB 		bl	CyFxAppErrorHandler
 563              	.L57:
 564 077c 0300A0E3 		mov	r0, #3
 565 0780 0010A0E3 		mov	r1, #0
 566 0784 38219FE5 		ldr	r2, .L117+84
 567 0788 FEFFFFEB 		bl	CyU3PUsbSetDesc
 568 078c 004050E2 		subs	r4, r0, #0
 569 0790 0500000A 		beq	.L58
 570 0794 0400A0E3 		mov	r0, #4
 571 0798 28119FE5 		ldr	r1, .L117+88
 572 079c 0420A0E1 		mov	r2, r4
 573 07a0 FEFFFFEB 		bl	CyU3PDebugPrint
 574 07a4 0400A0E1 		mov	r0, r4
 575 07a8 FEFFFFEB 		bl	CyFxAppErrorHandler
 576              	.L58:
 577 07ac 0500A0E3 		mov	r0, #5
 578 07b0 0010A0E3 		mov	r1, #0
 579 07b4 10219FE5 		ldr	r2, .L117+92
 580 07b8 FEFFFFEB 		bl	CyU3PUsbSetDesc
 581 07bc 004050E2 		subs	r4, r0, #0
 582 07c0 0500000A 		beq	.L59
 583 07c4 0400A0E3 		mov	r0, #4
 584 07c8 00119FE5 		ldr	r1, .L117+96
 585 07cc 0420A0E1 		mov	r2, r4
 586 07d0 FEFFFFEB 		bl	CyU3PDebugPrint
 587 07d4 0400A0E1 		mov	r0, r4
 588 07d8 FEFFFFEB 		bl	CyFxAppErrorHandler
 589              	.L59:
 590 07dc 0500A0E3 		mov	r0, #5
 591 07e0 0110A0E3 		mov	r1, #1
 592 07e4 E8209FE5 		ldr	r2, .L117+100
 593 07e8 FEFFFFEB 		bl	CyU3PUsbSetDesc
 594 07ec 004050E2 		subs	r4, r0, #0
 595 07f0 0500000A 		beq	.L60
 596 07f4 0400A0E3 		mov	r0, #4
 597 07f8 D0109FE5 		ldr	r1, .L117+96
 598 07fc 0420A0E1 		mov	r2, r4
 599 0800 FEFFFFEB 		bl	CyU3PDebugPrint
 600 0804 0400A0E1 		mov	r0, r4
 601 0808 FEFFFFEB 		bl	CyFxAppErrorHandler
 602              	.L60:
 603 080c 0500A0E3 		mov	r0, #5
 604 0810 0210A0E3 		mov	r1, #2
 605 0814 BC209FE5 		ldr	r2, .L117+104
 606 0818 FEFFFFEB 		bl	CyU3PUsbSetDesc
 607 081c 004050E2 		subs	r4, r0, #0
 608 0820 0500000A 		beq	.L61
 609 0824 0400A0E3 		mov	r0, #4
 610 0828 A0109FE5 		ldr	r1, .L117+96
 611 082c 0420A0E1 		mov	r2, r4
 612 0830 FEFFFFEB 		bl	CyU3PDebugPrint
 613 0834 0400A0E1 		mov	r0, r4
 614 0838 FEFFFFEB 		bl	CyFxAppErrorHandler
 615              	.L61:
 616 083c 0100A0E3 		mov	r0, #1
 617 0840 0010A0E1 		mov	r1, r0
 618 0844 FEFFFFEB 		bl	CyU3PConnectState
 619 0848 004050E2 		subs	r4, r0, #0
 620 084c 0500000A 		beq	.L44
 621 0850 0400A0E3 		mov	r0, #4
 622 0854 80109FE5 		ldr	r1, .L117+108
 623 0858 0420A0E1 		mov	r2, r4
 624 085c FEFFFFEB 		bl	CyU3PDebugPrint
 625 0860 0400A0E1 		mov	r0, r4
 626 0864 FEFFFFEB 		bl	CyFxAppErrorHandler
 627              	.L44:
 628 0868 40D08DE2 		add	sp, sp, #64
 629              		@ sp needed
 630 086c 1080BDE8 		ldmfd	sp!, {r4, pc}
 631              	.L118:
 632              		.align	2
 633              	.L117:
 634 0870 00000000 		.word	glFxConfigFpgaAppEvent
 635 0874 C6040000 		.word	.LC24
 636 0878 EE040000 		.word	.LC25
 637 087c 40787D01 		.word	25000000
 638 0880 12050000 		.word	.LC26
 639 0884 38050000 		.word	.LC27
 640 0888 5D050000 		.word	.LC28
 641 088c 91050000 		.word	.LC29
 642 0890 00000000 		.word	CyFxSlFifoApplnUSBSetupCB
 643 0894 00000000 		.word	CyFxSlFifoApplnUSBEventCB
 644 0898 00000000 		.word	CyFxApplnLPMRqtCB
 645 089c 00000000 		.word	CyFxUSB30DeviceDscr
 646 08a0 C3050000 		.word	.LC30
 647 08a4 00000000 		.word	CyFxUSB20DeviceDscr
 648 08a8 00000000 		.word	CyFxUSBBOSDscr
 649 08ac F8050000 		.word	.LC31
 650 08b0 00000000 		.word	CyFxUSBDeviceQualDscr
 651 08b4 34060000 		.word	.LC32
 652 08b8 00000000 		.word	CyFxUSBSSConfigDscr
 653 08bc 00000000 		.word	CyFxUSBHSConfigDscr
 654 08c0 73060000 		.word	.LC33
 655 08c4 00000000 		.word	CyFxUSBFSConfigDscr
 656 08c8 AD060000 		.word	.LC34
 657 08cc 00000000 		.word	CyFxUSBStringLangIDDscr
 658 08d0 E9060000 		.word	.LC35
 659 08d4 00000000 		.word	CyFxUSBManufactureDscr
 660 08d8 00000000 		.word	CyFxUSBProductDscr
 661 08dc 1E070000 		.word	.LC36
 663              		.section	.text.startup,"ax",%progbits
 664              		.align	2
 665              		.global	main
 667              	main:
 668              		@ args = 0, pretend = 0, frame = 56
 669              		@ frame_needed = 0, uses_anonymous_args = 0
 670 0000 10402DE9 		stmfd	sp!, {r4, lr}
 671 0004 0230A0E3 		mov	r3, #2
 672 0008 38D04DE2 		sub	sp, sp, #56
 673 000c 0430CDE5 		strb	r3, [sp, #4]
 674 0010 0530CDE5 		strb	r3, [sp, #5]
 675 0014 0630CDE5 		strb	r3, [sp, #6]
 676 0018 0030A0E3 		mov	r3, #0
 677 001c 08308DE5 		str	r3, [sp, #8]
 678 0020 0140A0E3 		mov	r4, #1
 679 0024 0330A0E3 		mov	r3, #3
 680 0028 0D00A0E1 		mov	r0, sp
 681 002c 00408DE5 		str	r4, [sp]
 682 0030 0C30CDE5 		strb	r3, [sp, #12]
 683 0034 FEFFFFEB 		bl	CyU3PDeviceInit
 684 0038 001050E2 		subs	r1, r0, #0
 685 003c 1300001A 		bne	.L120
 686 0040 0400A0E1 		mov	r0, r4
 687 0044 0120A0E1 		mov	r2, r1
 688 0048 FEFFFFEB 		bl	CyU3PDeviceCacheControl
 689 004c 000050E3 		cmp	r0, #0
 690 0050 0E00001A 		bne	.L120
 691 0054 18008DE5 		str	r0, [sp, #24]
 692 0058 1C008DE5 		str	r0, [sp, #28]
 693 005c 10008DE5 		str	r0, [sp, #16]
 694 0060 2600CDE5 		strb	r0, [sp, #38]
 695 0064 28008DE5 		str	r0, [sp, #40]
 696 0068 0527A0E3 		mov	r2, #1310720
 697 006c 30008DE5 		str	r0, [sp, #48]
 698 0070 34008DE5 		str	r0, [sp, #52]
 699 0074 10008DE2 		add	r0, sp, #16
 700 0078 14408DE5 		str	r4, [sp, #20]
 701 007c 20408DE5 		str	r4, [sp, #32]
 702 0080 2C208DE5 		str	r2, [sp, #44]
 703 0084 FEFFFFEB 		bl	CyU3PDeviceConfigureIOMatrix
 704 0088 004050E2 		subs	r4, r0, #0
 705 008c 0000000A 		beq	.L121
 706              	.L120:
 707              	.L122:
 708 0090 FEFFFFEA 		b	.L122
 709              	.L121:
 710 0094 FEFFFFEB 		bl	_tx_initialize_kernel_enter
 711 0098 0400A0E1 		mov	r0, r4
 712 009c 38D08DE2 		add	sp, sp, #56
 713              		@ sp needed
 714 00a0 1080BDE8 		ldmfd	sp!, {r4, pc}
 716              		.global	uiPacketSize
 717              		.comm	glFxConfigFpgaAppEvent,40,4
 718              		.global	filelen
 719              		.global	glConfigDone
 720              		.comm	glChHandleUtoCPU,172,4
 721              		.section	.rodata.str1.1,"aMS",%progbits,1
 722              	.LC0:
 723 0000 0D096669 		.ascii	"\015\011file length: %d\015\012\000"
 723      6C65206C 
 723      656E6774 
 723      683A2025 
 723      640D0A00 
 724              	.LC1:
 725 0014 0D455252 		.ascii	"\015ERROR: FPGA_Init_B down. Is the FPGA on?\015\012"
 725      4F523A20 
 725      46504741 
 725      5F496E69 
 725      745F4220 
 726 003f 00       		.ascii	"\000"
 727              	.LC2:
 728 0040 0D20312E 		.ascii	"\015 1. Pulling PROG_B line to reset FPGA\015\012\000"
 728      2050756C 
 728      6C696E67 
 728      2050524F 
 728      475F4220 
 729              	.LC3:
 730 0069 0D455252 		.ascii	"\015ERROR: FPGA_Init_B was not reseted. Error code "
 730      4F523A20 
 730      46504741 
 730      5F496E69 
 730      745F4220 
 731 0099 3D202564 		.ascii	"= %d\015\012\000"
 731      0D0A00
 732              	.LC4:
 733 00a0 0D20322E 		.ascii	"\015 2. Releasing PROG_B line\015\012\000"
 733      2052656C 
 733      65617369 
 733      6E672050 
 733      524F475F 
 734              	.LC5:
 735 00bd 0D20332E 		.ascii	"\015 3. Checking FPGA_Init_B to know if FPGA is rea"
 735      20436865 
 735      636B696E 
 735      67204650 
 735      47415F49 
 736 00ed 64792E0D 		.ascii	"dy.\015\012\000"
 736      0A00
 737              	.LC6:
 738 00f3 0D455252 		.ascii	"\015ERROR: FPGA not ready. Error code = %d\015\012\000"
 738      4F523A20 
 738      46504741 
 738      206E6F74 
 738      20726561 
 739              	.LC7:
 740 011d 0D20342E 		.ascii	"\015 4. Start shifting configuration data...\015\012"
 740      20537461 
 740      72742073 
 740      68696674 
 740      696E6720 
 741 0148 00       		.ascii	"\000"
 742              	.LC8:
 743 0149 0D455252 		.ascii	"\015ERROR: Timeout waiting for FPGA's firmware from"
 743      4F523A20 
 743      54696D65 
 743      6F757420 
 743      77616974 
 744 0179 20435055 		.ascii	" CPU. Error code = %d\015\012\000"
 744      2E204572 
 744      726F7220 
 744      636F6465 
 744      203D2025 
 745              	.LC9:
 746 0191 0D457272 		.ascii	"\015Error getting the FPGA's firmware. Error code ="
 746      6F722067 
 746      65747469 
 746      6E672074 
 746      68652046 
 747 01c1 2025640D 		.ascii	" %d\015\012\000"
 747      0A00
 748              	.LC10:
 749 01c7 0D094661 		.ascii	"\015\011Failed to send data to FPGA. Error code = %"
 749      696C6564 
 749      20746F20 
 749      73656E64 
 749      20646174 
 750 01f4 640D0A00 		.ascii	"d\015\012\000"
 751              	.LC11:
 752 01f8 0D455252 		.ascii	"\015ERROR: Timeout discarding buffer. Error code = "
 752      4F523A20 
 752      54696D65 
 752      6F757420 
 752      64697363 
 753 0228 25640D0A 		.ascii	"%d\015\012\000"
 753      00
 754              	.LC12:
 755 022d 0D20342E 		.ascii	"\015 4. Checking DONE signal\015\012\000"
 755      20436865 
 755      636B696E 
 755      6720444F 
 755      4E452073 
 756              	.LC13:
 757 0249 0D455252 		.ascii	"\015ERROR: FPGA_DONE signal. Error code = %d\015\012"
 757      4F523A20 
 757      46504741 
 757      5F444F4E 
 757      45207369 
 758 0274 00       		.ascii	"\000"
 759              	.LC14:
 760 0275 0D465047 		.ascii	"\015FPGA was programmed successfully. Status code ="
 760      41207761 
 760      73207072 
 760      6F677261 
 760      6D6D6564 
 761 02a5 2025640D 		.ascii	" %d\015\012\000"
 761      0A00
 762              	.LC15:
 763 02ab 0D465047 		.ascii	"\015FPGA configuration failed. Status code = %d\015"
 763      4120636F 
 763      6E666967 
 763      75726174 
 763      696F6E20 
 764 02d8 0A00     		.ascii	"\012\000"
 765              	.LC16:
 766 02da 0D466972 		.ascii	"\015Firmware version modified by J. Agustin Barrach"
 766      6D776172 
 766      65207665 
 766      7273696F 
 766      6E206D6F 
 767 030a 696E613A 		.ascii	"ina: \015\012\000"
 767      200D0A00 
 768              	.LC17:
 769 0312 0D576172 		.ascii	"\015Warning: USB 2.0 FULL SPEED detected.\012\015\011"
 769      6E696E67 
 769      3A205553 
 769      4220322E 
 769      30204655 
 770 033b 436F6E73 		.ascii	"Consider connecting the board to a USB3 interface f"
 770      69646572 
 770      20636F6E 
 770      6E656374 
 770      696E6720 
 771 036e 6F722062 		.ascii	"or better performance\015\012\000"
 771      65747465 
 771      72207065 
 771      72666F72 
 771      6D616E63 
 772              	.LC18:
 773 0386 0D576172 		.ascii	"\015Warning: USB 2.0 HIGH SPEED detected.\012\015\011"
 773      6E696E67 
 773      3A205553 
 773      4220322E 
 773      30204849 
 774 03af 436F6E73 		.ascii	"Consider connecting the board to a USB3 interface f"
 774      69646572 
 774      20636F6E 
 774      6E656374 
 774      696E6720 
 775 03e2 6F722062 		.ascii	"or better performance\015\012\000"
 775      65747465 
 775      72207065 
 775      72666F72 
 775      6D616E63 
 776              	.LC19:
 777 03fa 0D555342 		.ascii	"\015USB 3.0 SUPER SPEED detected\015\012\000"
 777      20332E30 
 777      20535550 
 777      45522053 
 777      50454544 
 778              	.LC20:
 779 041a 0D457272 		.ascii	"\015Error! Invalid USB speed.\015\012\000"
 779      6F722120 
 779      496E7661 
 779      6C696420 
 779      55534220 
 780              	.LC21:
 781 0437 0D437955 		.ascii	"\015CyU3PSetEpConfig failed, Error code = %d\015\012"
 781      33505365 
 781      74457043 
 781      6F6E6669 
 781      67206661 
 782 0462 00       		.ascii	"\000"
 783              	.LC22:
 784 0463 0D437955 		.ascii	"\015CyU3PDmaChannelCreate failed, Error code = %d\015"
 784      3350446D 
 784      61436861 
 784      6E6E656C 
 784      43726561 
 785 0492 0A00     		.ascii	"\012\000"
 786              	.LC23:
 787 0494 0D437955 		.ascii	"\015CyU3PDmaChannelSetXfer Failed, Error code = %d\015"
 787      3350446D 
 787      61436861 
 787      6E6E656C 
 787      53657458 
 788 04c4 0A00     		.ascii	"\012\000"
 789              	.LC24:
 790 04c6 0D457665 		.ascii	"\015Event create failed, Error Code = %d\015\012\000"
 790      6E742063 
 790      72656174 
 790      65206661 
 790      696C6564 
 791              	.LC25:
 792 04ee 0D535049 		.ascii	"\015SPI init failed, Error Code = %d\015\012\000"
 792      20696E69 
 792      74206661 
 792      696C6564 
 792      2C204572 
 793              	.LC26:
 794 0512 0D535049 		.ascii	"\015SPI config failed, Error Code = %d\015\012\000"
 794      20636F6E 
 794      66696720 
 794      6661696C 
 794      65642C20 
 795              	.LC27:
 796 0538 0D475049 		.ascii	"\015GPIO Init failed, Error Code = %d\015\012\000"
 796      4F20496E 
 796      69742066 
 796      61696C65 
 796      642C2045 
 797              	.LC28:
 798 055d 0D437955 		.ascii	"\015CyU3PGpioSetSimpleConfig failed, error code = %"
 798      33504770 
 798      696F5365 
 798      7453696D 
 798      706C6543 
 799 058d 640D0A00 		.ascii	"d\015\012\000"
 800              	.LC29:
 801 0591 0D437955 		.ascii	"\015CyU3PUsbStart failed to Start, Error code = %d\015"
 801      33505573 
 801      62537461 
 801      72742066 
 801      61696C65 
 802 05c1 0A00     		.ascii	"\012\000"
 803              	.LC30:
 804 05c3 0D555342 		.ascii	"\015USB set device descriptor failed, Error code = "
 804      20736574 
 804      20646576 
 804      69636520 
 804      64657363 
 805 05f3 25640D0A 		.ascii	"%d\015\012\000"
 805      00
 806              	.LC31:
 807 05f8 0D555342 		.ascii	"\015USB set configuration descriptor failed, Error "
 807      20736574 
 807      20636F6E 
 807      66696775 
 807      72617469 
 808 0628 636F6465 		.ascii	"code = %d\015\012\000"
 808      203D2025 
 808      640D0A00 
 809              	.LC32:
 810 0634 0D555342 		.ascii	"\015USB set device qualifier descriptor failed, Err"
 810      20736574 
 810      20646576 
 810      69636520 
 810      7175616C 
 811 0664 6F722063 		.ascii	"or code = %d\015\012\000"
 811      6F646520 
 811      3D202564 
 811      0D0A00
 812              	.LC33:
 813 0673 0D555342 		.ascii	"\015USB Set Other Speed Descriptor failed, Error Co"
 813      20536574 
 813      204F7468 
 813      65722053 
 813      70656564 
 814 06a3 6465203D 		.ascii	"de = %d\015\012\000"
 814      2025640D 
 814      0A00
 815              	.LC34:
 816 06ad 0D555342 		.ascii	"\015USB Set Configuration Descriptor failed, Error "
 816      20536574 
 816      20436F6E 
 816      66696775 
 816      72617469 
 817 06dd 436F6465 		.ascii	"Code = %d\015\012\000"
 817      203D2025 
 817      640D0A00 
 818              	.LC35:
 819 06e9 0D555342 		.ascii	"\015USB set string descriptor failed, Error code = "
 819      20736574 
 819      20737472 
 819      696E6720 
 819      64657363 
 820 0719 25640D0A 		.ascii	"%d\015\012\000"
 820      00
 821              	.LC36:
 822 071e 0D555342 		.ascii	"\015USB Connect failed, Error code = %d\015\012\000"
 822      20436F6E 
 822      6E656374 
 822      20666169 
 822      6C65642C 
 823              		.data
 824              		.align	2
 825              		.set	.LANCHOR0,. + 0
 828              	glConfigDone:
 829 0000 01000000 		.word	1
 830              		.bss
 831              		.align	2
 832              		.set	.LANCHOR1,. + 0
 835              	uiPacketSize:
 836 0000 0000     		.space	2
 837 0002 0000     		.space	2
 840              	filelen:
 841 0004 00000000 		.space	4
 842              		.ident	"GCC: (Sourcery CodeBench Lite 2013.11-24) 4.8.1"
DEFINED SYMBOLS
                            *ABS*:00000000 cyfxconfigfpga.c
C:\Users\NEGU93\AppData\Local\Temp\ccuLwq5c.s:14     .text:00000000 $a
C:\Users\NEGU93\AppData\Local\Temp\ccuLwq5c.s:17     .text:00000000 CyFxConfigFpga
C:\Users\NEGU93\AppData\Local\Temp\ccuLwq5c.s:187    .text:00000258 $d
                            *COM*:000000ac glChHandleUtoCPU
C:\Users\NEGU93\AppData\Local\Temp\ccuLwq5c.s:208    .text:000002a8 $a
C:\Users\NEGU93\AppData\Local\Temp\ccuLwq5c.s:211    .text:000002a8 CyFxConfigFpgaApplnStart
C:\Users\NEGU93\AppData\Local\Temp\ccuLwq5c.s:328    .text:00000444 $d
C:\Users\NEGU93\AppData\Local\Temp\ccuLwq5c.s:341    .text:00000474 $a
C:\Users\NEGU93\AppData\Local\Temp\ccuLwq5c.s:344    .text:00000474 CyFxConfigFpgaApplnStop
C:\Users\NEGU93\AppData\Local\Temp\ccuLwq5c.s:364    .text:000004ac $d
C:\Users\NEGU93\AppData\Local\Temp\ccuLwq5c.s:368    .text:000004b8 $a
C:\Users\NEGU93\AppData\Local\Temp\ccuLwq5c.s:371    .text:000004b8 CyFxConfigFpgaApplnInit
C:\Users\NEGU93\AppData\Local\Temp\ccuLwq5c.s:634    .text:00000870 $d
                            *COM*:00000028 glFxConfigFpgaAppEvent
C:\Users\NEGU93\AppData\Local\Temp\ccuLwq5c.s:664    .text.startup:00000000 $a
C:\Users\NEGU93\AppData\Local\Temp\ccuLwq5c.s:667    .text.startup:00000000 main
C:\Users\NEGU93\AppData\Local\Temp\ccuLwq5c.s:835    .bss:00000000 uiPacketSize
C:\Users\NEGU93\AppData\Local\Temp\ccuLwq5c.s:840    .bss:00000004 filelen
C:\Users\NEGU93\AppData\Local\Temp\ccuLwq5c.s:828    .data:00000000 glConfigDone
C:\Users\NEGU93\AppData\Local\Temp\ccuLwq5c.s:824    .data:00000000 $d
C:\Users\NEGU93\AppData\Local\Temp\ccuLwq5c.s:831    .bss:00000000 $d

UNDEFINED SYMBOLS
CyU3PDebugPrint
CyU3PGpioSimpleGetValue
CyU3PSpiSetSsnLine
_tx_thread_sleep
CyU3PDmaChannelGetBuffer
CyU3PSpiTransmitWords
CyU3PDmaChannelDiscardBuffer
glIsApplnActive
CyU3PUsbGetSpeed
CyFxAppErrorHandler
CyU3PMemSet
CyU3PSetEpConfig
CyU3PDmaChannelCreate
CyU3PUsbFlushEp
CyU3PDmaChannelSetXfer
CyU3PGpioDeInit
CyU3PSpiDeInit
CyU3PUsbGetEpSeqNum
CyU3PDmaChannelDestroy
seqnum_p
_txe_event_flags_create
CyU3PSpiInit
CyU3PSpiSetConfig
CyU3PGpioInit
CyU3PGpioSetSimpleConfig
CyU3PUsbStart
CyU3PUsbRegisterSetupCallback
CyU3PUsbRegisterEventCallback
CyU3PUsbRegisterLPMRequestCallback
CyU3PUsbSetDesc
CyU3PConnectState
CyFxSlFifoApplnUSBSetupCB
CyFxSlFifoApplnUSBEventCB
CyFxApplnLPMRqtCB
CyFxUSB30DeviceDscr
CyFxUSB20DeviceDscr
CyFxUSBBOSDscr
CyFxUSBDeviceQualDscr
CyFxUSBSSConfigDscr
CyFxUSBHSConfigDscr
CyFxUSBFSConfigDscr
CyFxUSBStringLangIDDscr
CyFxUSBManufactureDscr
CyFxUSBProductDscr
CyU3PDeviceInit
CyU3PDeviceCacheControl
CyU3PDeviceConfigureIOMatrix
_tx_initialize_kernel_enter
