   1              		.cpu arm926ej-s
   2              		.fpu softvfp
   3              		.eabi_attribute 20, 1
   4              		.eabi_attribute 21, 1
   5              		.eabi_attribute 23, 3
   6              		.eabi_attribute 24, 1
   7              		.eabi_attribute 25, 1
   8              		.eabi_attribute 26, 1
   9              		.eabi_attribute 30, 4
  10              		.eabi_attribute 34, 0
  11              		.eabi_attribute 18, 4
  12              		.file	"cyfxslfifosync.c"
  13              		.text
  14              		.align	2
  15              		.global	CyFxAppErrorHandler
  17              	CyFxAppErrorHandler:
  18              		@ Volatile: function does not return.
  19              		@ args = 0, pretend = 0, frame = 0
  20              		@ frame_needed = 0, uses_anonymous_args = 0
  21 0000 08402DE9 		stmfd	sp!, {r3, lr}
  22              	.L2:
  23 0004 6400A0E3 		mov	r0, #100
  24 0008 FEFFFFEB 		bl	_tx_thread_sleep
  25 000c FCFFFFEA 		b	.L2
  27              		.align	2
  28              		.global	CyFxSlFifoApplnDebugInit
  30              	CyFxSlFifoApplnDebugInit:
  31              		@ args = 0, pretend = 0, frame = 24
  32              		@ frame_needed = 0, uses_anonymous_args = 0
  33 0010 10402DE9 		stmfd	sp!, {r4, lr}
  34 0014 18D04DE2 		sub	sp, sp, #24
  35 0018 FEFFFFEB 		bl	CyU3PUartInit
  36 001c 004050E2 		subs	r4, r0, #0
  37 0020 0200000A 		beq	.L5
  38              	.L13:
  39 0024 6400A0E3 		mov	r0, #100
  40 0028 FEFFFFEB 		bl	_tx_thread_sleep
  41 002c FCFFFFEA 		b	.L13
  42              	.L5:
  43 0030 0D00A0E1 		mov	r0, sp
  44 0034 0410A0E1 		mov	r1, r4
  45 0038 1820A0E3 		mov	r2, #24
  46 003c FEFFFFEB 		bl	CyU3PMemSet
  47 0040 7C309FE5 		ldr	r3, .L17
  48 0044 0D00A0E1 		mov	r0, sp
  49 0048 10308DE5 		str	r3, [sp, #16]
  50 004c 0410A0E1 		mov	r1, r4
  51 0050 0130A0E3 		mov	r3, #1
  52 0054 1430CDE5 		strb	r3, [sp, #20]
  53 0058 1540CDE5 		strb	r4, [sp, #21]
  54 005c 18008DE8 		stmia	sp, {r3, r4}
  55 0060 08408DE5 		str	r4, [sp, #8]
  56 0064 0C308DE5 		str	r3, [sp, #12]
  57 0068 FEFFFFEB 		bl	CyU3PUartSetConfig
  58 006c 000050E3 		cmp	r0, #0
  59 0070 0200000A 		beq	.L7
  60              	.L14:
  61 0074 6400A0E3 		mov	r0, #100
  62 0078 FEFFFFEB 		bl	_tx_thread_sleep
  63 007c FCFFFFEA 		b	.L14
  64              	.L7:
  65 0080 0000E0E3 		mvn	r0, #0
  66 0084 FEFFFFEB 		bl	CyU3PUartTxSetBlockXfer
  67 0088 000050E3 		cmp	r0, #0
  68 008c 0200000A 		beq	.L9
  69              	.L15:
  70 0090 6400A0E3 		mov	r0, #100
  71 0094 FEFFFFEB 		bl	_tx_thread_sleep
  72 0098 FCFFFFEA 		b	.L15
  73              	.L9:
  74 009c 0300A0E3 		mov	r0, #3
  75 00a0 0810A0E3 		mov	r1, #8
  76 00a4 FEFFFFEB 		bl	CyU3PDebugInit
  77 00a8 000050E3 		cmp	r0, #0
  78 00ac 0200000A 		beq	.L4
  79              	.L16:
  80 00b0 6400A0E3 		mov	r0, #100
  81 00b4 FEFFFFEB 		bl	_tx_thread_sleep
  82 00b8 FCFFFFEA 		b	.L16
  83              	.L4:
  84 00bc 18D08DE2 		add	sp, sp, #24
  85              		@ sp needed
  86 00c0 1080BDE8 		ldmfd	sp!, {r4, pc}
  87              	.L18:
  88              		.align	2
  89              	.L17:
  90 00c4 00C20100 		.word	115200
  92              		.align	2
  93              		.global	CyFxSlFifoUtoPDmaCallback
  95              	CyFxSlFifoUtoPDmaCallback:
  96              		@ args = 0, pretend = 0, frame = 0
  97              		@ frame_needed = 0, uses_anonymous_args = 0
  98 00c8 70402DE9 		stmfd	sp!, {r4, r5, r6, lr}
  99 00cc 0150A0E1 		mov	r5, r1
 100 00d0 0040A0E1 		mov	r4, r0
 101 00d4 48109FE5 		ldr	r1, .L25
 102 00d8 0400A0E3 		mov	r0, #4
 103 00dc 0260A0E1 		mov	r6, r2
 104 00e0 FEFFFFEB 		bl	CyU3PDebugPrint
 105 00e4 080055E3 		cmp	r5, #8
 106 00e8 7080BD18 		ldmnefd	sp!, {r4, r5, r6, pc}
 107 00ec 0020A0E3 		mov	r2, #0
 108 00f0 0400A0E1 		mov	r0, r4
 109 00f4 B410D6E1 		ldrh	r1, [r6, #4]
 110 00f8 FEFFFFEB 		bl	CyU3PDmaChannelCommitBuffer
 111 00fc 002050E2 		subs	r2, r0, #0
 112 0100 0200000A 		beq	.L21
 113 0104 0400A0E3 		mov	r0, #4
 114 0108 18109FE5 		ldr	r1, .L25+4
 115 010c FEFFFFEB 		bl	CyU3PDebugPrint
 116              	.L21:
 117 0110 14309FE5 		ldr	r3, .L25+8
 118 0114 002093E5 		ldr	r2, [r3]
 119 0118 012082E2 		add	r2, r2, #1
 120 011c 002083E5 		str	r2, [r3]
 121 0120 7080BDE8 		ldmfd	sp!, {r4, r5, r6, pc}
 122              	.L26:
 123              		.align	2
 124              	.L25:
 125 0124 00000000 		.word	.LC0
 126 0128 1E000000 		.word	.LC1
 127 012c 00000000 		.word	.LANCHOR0
 129              		.align	2
 130              		.global	CyFxSlFifoPtoUDmaCallback
 132              	CyFxSlFifoPtoUDmaCallback:
 133              		@ args = 0, pretend = 0, frame = 0
 134              		@ frame_needed = 0, uses_anonymous_args = 0
 135 0130 70402DE9 		stmfd	sp!, {r4, r5, r6, lr}
 136 0134 0150A0E1 		mov	r5, r1
 137 0138 0040A0E1 		mov	r4, r0
 138 013c 48109FE5 		ldr	r1, .L33
 139 0140 0400A0E3 		mov	r0, #4
 140 0144 0260A0E1 		mov	r6, r2
 141 0148 FEFFFFEB 		bl	CyU3PDebugPrint
 142 014c 080055E3 		cmp	r5, #8
 143 0150 7080BD18 		ldmnefd	sp!, {r4, r5, r6, pc}
 144 0154 0020A0E3 		mov	r2, #0
 145 0158 0400A0E1 		mov	r0, r4
 146 015c B410D6E1 		ldrh	r1, [r6, #4]
 147 0160 FEFFFFEB 		bl	CyU3PDmaChannelCommitBuffer
 148 0164 002050E2 		subs	r2, r0, #0
 149 0168 0200000A 		beq	.L29
 150 016c 0400A0E3 		mov	r0, #4
 151 0170 18109FE5 		ldr	r1, .L33+4
 152 0174 FEFFFFEB 		bl	CyU3PDebugPrint
 153              	.L29:
 154 0178 14309FE5 		ldr	r3, .L33+8
 155 017c 042093E5 		ldr	r2, [r3, #4]
 156 0180 012082E2 		add	r2, r2, #1
 157 0184 042083E5 		str	r2, [r3, #4]
 158 0188 7080BDE8 		ldmfd	sp!, {r4, r5, r6, pc}
 159              	.L34:
 160              		.align	2
 161              	.L33:
 162 018c 53000000 		.word	.LC2
 163 0190 1E000000 		.word	.LC1
 164 0194 00000000 		.word	.LANCHOR0
 166              		.align	2
 167              		.global	CyFxSlFifoApplnStart
 169              	CyFxSlFifoApplnStart:
 170              		@ args = 0, pretend = 0, frame = 40
 171              		@ frame_needed = 0, uses_anonymous_args = 0
 172 0198 70402DE9 		stmfd	sp!, {r4, r5, r6, lr}
 173 019c 28D04DE2 		sub	sp, sp, #40
 174 01a0 FEFFFFEB 		bl	CyU3PUsbGetSpeed
 175 01a4 020050E3 		cmp	r0, #2
 176 01a8 0E00000A 		beq	.L53
 177 01ac 030050E3 		cmp	r0, #3
 178 01b0 0500000A 		beq	.L38
 179 01b4 010050E3 		cmp	r0, #1
 180 01b8 0800000A 		beq	.L55
 181 01bc EC119FE5 		ldr	r1, .L56
 182 01c0 0400A0E3 		mov	r0, #4
 183 01c4 FEFFFFEB 		bl	CyU3PDebugPrint
 184 01c8 010000EA 		b	.L40
 185              	.L38:
 186 01cc 015BA0E3 		mov	r5, #1024
 187 01d0 050000EA 		b	.L37
 188              	.L40:
 189 01d4 6400A0E3 		mov	r0, #100
 190 01d8 FEFFFFEB 		bl	_tx_thread_sleep
 191 01dc FCFFFFEA 		b	.L40
 192              	.L55:
 193 01e0 4050A0E3 		mov	r5, #64
 194 01e4 000000EA 		b	.L37
 195              	.L53:
 196 01e8 025CA0E3 		mov	r5, #512
 197              	.L37:
 198 01ec 0C20A0E3 		mov	r2, #12
 199 01f0 0140A0E3 		mov	r4, #1
 200 01f4 0D00A0E1 		mov	r0, sp
 201 01f8 0010A0E3 		mov	r1, #0
 202 01fc FEFFFFEB 		bl	CyU3PMemSet
 203 0200 0260A0E3 		mov	r6, #2
 204 0204 0030A0E3 		mov	r3, #0
 205 0208 0400A0E1 		mov	r0, r4
 206 020c 0D10A0E1 		mov	r1, sp
 207 0210 00408DE5 		str	r4, [sp]
 208 0214 0460CDE5 		strb	r6, [sp, #4]
 209 0218 0A40CDE5 		strb	r4, [sp, #10]
 210 021c B630CDE1 		strh	r3, [sp, #6]	@ movhi
 211 0220 B850CDE1 		strh	r5, [sp, #8]	@ movhi
 212 0224 FEFFFFEB 		bl	CyU3PSetEpConfig
 213 0228 002050E2 		subs	r2, r0, #0
 214 022c 0500000A 		beq	.L41
 215 0230 0400A0E3 		mov	r0, #4
 216 0234 78119FE5 		ldr	r1, .L56+4
 217 0238 FEFFFFEB 		bl	CyU3PDebugPrint
 218              	.L42:
 219 023c 6400A0E3 		mov	r0, #100
 220 0240 FEFFFFEB 		bl	_tx_thread_sleep
 221 0244 FCFFFFEA 		b	.L42
 222              	.L41:
 223 0248 68319FE5 		ldr	r3, .L56+8
 224 024c 0400A0E1 		mov	r0, r4
 225 0250 0010D3E5 		ldrb	r1, [r3]	@ zero_extendqisi2
 226 0254 FEFFFFEB 		bl	CyU3PUsbSetEpSeqNum
 227 0258 8100A0E3 		mov	r0, #129
 228 025c 0D10A0E1 		mov	r1, sp
 229 0260 FEFFFFEB 		bl	CyU3PSetEpConfig
 230 0264 002050E2 		subs	r2, r0, #0
 231 0268 0500000A 		beq	.L43
 232 026c 0400A0E3 		mov	r0, #4
 233 0270 3C119FE5 		ldr	r1, .L56+4
 234 0274 FEFFFFEB 		bl	CyU3PDebugPrint
 235              	.L44:
 236 0278 6400A0E3 		mov	r0, #100
 237 027c FEFFFFEB 		bl	_tx_thread_sleep
 238 0280 FCFFFFEA 		b	.L44
 239              	.L43:
 240 0284 30319FE5 		ldr	r3, .L56+12
 241 0288 1C20CDE5 		strb	r2, [sp, #28]
 242 028c B031CDE1 		strh	r3, [sp, #16]	@ movhi
 243 0290 28319FE5 		ldr	r3, .L56+16
 244 0294 20208DE5 		str	r2, [sp, #32]
 245 0298 24208DE5 		str	r2, [sp, #36]
 246 029c B621CDE1 		strh	r2, [sp, #22]	@ movhi
 247 02a0 B821CDE1 		strh	r2, [sp, #24]	@ movhi
 248 02a4 BA21CDE1 		strh	r2, [sp, #26]	@ movhi
 249 02a8 B421CDE1 		strh	r2, [sp, #20]	@ movhi
 250 02ac 0210A0E1 		mov	r1, r2
 251 02b0 0C019FE5 		ldr	r0, .L56+20
 252 02b4 0C208DE2 		add	r2, sp, #12
 253 02b8 BC50CDE1 		strh	r5, [sp, #12]	@ movhi
 254 02bc BE60CDE1 		strh	r6, [sp, #14]	@ movhi
 255 02c0 B231CDE1 		strh	r3, [sp, #18]	@ movhi
 256 02c4 FEFFFFEB 		bl	CyU3PDmaChannelCreate
 257 02c8 002050E2 		subs	r2, r0, #0
 258 02cc 0500000A 		beq	.L45
 259 02d0 0400A0E3 		mov	r0, #4
 260 02d4 EC109FE5 		ldr	r1, .L56+24
 261 02d8 FEFFFFEB 		bl	CyU3PDebugPrint
 262              	.L46:
 263 02dc 6400A0E3 		mov	r0, #100
 264 02e0 FEFFFFEB 		bl	_tx_thread_sleep
 265 02e4 FCFFFFEA 		b	.L46
 266              	.L45:
 267 02e8 013CA0E3 		mov	r3, #256
 268 02ec B031CDE1 		strh	r3, [sp, #16]	@ movhi
 269 02f0 D4309FE5 		ldr	r3, .L56+28
 270 02f4 24208DE5 		str	r2, [sp, #36]
 271 02f8 0210A0E1 		mov	r1, r2
 272 02fc CC009FE5 		ldr	r0, .L56+32
 273 0300 0C208DE2 		add	r2, sp, #12
 274 0304 BC50CDE1 		strh	r5, [sp, #12]	@ movhi
 275 0308 BE60CDE1 		strh	r6, [sp, #14]	@ movhi
 276 030c B231CDE1 		strh	r3, [sp, #18]	@ movhi
 277 0310 FEFFFFEB 		bl	CyU3PDmaChannelCreate
 278 0314 005050E2 		subs	r5, r0, #0
 279 0318 0600000A 		beq	.L47
 280 031c 0400A0E3 		mov	r0, #4
 281 0320 A0109FE5 		ldr	r1, .L56+24
 282 0324 0520A0E1 		mov	r2, r5
 283 0328 FEFFFFEB 		bl	CyU3PDebugPrint
 284              	.L48:
 285 032c 6400A0E3 		mov	r0, #100
 286 0330 FEFFFFEB 		bl	_tx_thread_sleep
 287 0334 FCFFFFEA 		b	.L48
 288              	.L47:
 289 0338 0400A0E1 		mov	r0, r4
 290 033c FEFFFFEB 		bl	CyU3PUsbFlushEp
 291 0340 8100A0E3 		mov	r0, #129
 292 0344 FEFFFFEB 		bl	CyU3PUsbFlushEp
 293 0348 74009FE5 		ldr	r0, .L56+20
 294 034c 0510A0E1 		mov	r1, r5
 295 0350 FEFFFFEB 		bl	CyU3PDmaChannelSetXfer
 296 0354 002050E2 		subs	r2, r0, #0
 297 0358 0500000A 		beq	.L49
 298 035c 0400A0E3 		mov	r0, #4
 299 0360 6C109FE5 		ldr	r1, .L56+36
 300 0364 FEFFFFEB 		bl	CyU3PDebugPrint
 301              	.L50:
 302 0368 6400A0E3 		mov	r0, #100
 303 036c FEFFFFEB 		bl	_tx_thread_sleep
 304 0370 FCFFFFEA 		b	.L50
 305              	.L49:
 306 0374 0210A0E1 		mov	r1, r2
 307 0378 50009FE5 		ldr	r0, .L56+32
 308 037c FEFFFFEB 		bl	CyU3PDmaChannelSetXfer
 309 0380 002050E2 		subs	r2, r0, #0
 310 0384 0500000A 		beq	.L51
 311 0388 0400A0E3 		mov	r0, #4
 312 038c 40109FE5 		ldr	r1, .L56+36
 313 0390 FEFFFFEB 		bl	CyU3PDebugPrint
 314              	.L52:
 315 0394 6400A0E3 		mov	r0, #100
 316 0398 FEFFFFEB 		bl	_tx_thread_sleep
 317 039c FCFFFFEA 		b	.L52
 318              	.L51:
 319 03a0 30309FE5 		ldr	r3, .L56+40
 320 03a4 084083E5 		str	r4, [r3, #8]
 321 03a8 28D08DE2 		add	sp, sp, #40
 322              		@ sp needed
 323 03ac 7080BDE8 		ldmfd	sp!, {r4, r5, r6, pc}
 324              	.L57:
 325              		.align	2
 326              	.L56:
 327 03b0 71000000 		.word	.LC3
 328 03b4 8C000000 		.word	.LC4
 329 03b8 00000000 		.word	seqnum_p
 330 03bc 01040000 		.word	1025
 331 03c0 03010000 		.word	259
 332 03c4 00000000 		.word	glChHandleSlFifoUtoP
 333 03c8 B6000000 		.word	.LC5
 334 03cc 01030000 		.word	769
 335 03d0 00000000 		.word	glChHandleSlFifoPtoU
 336 03d4 E5000000 		.word	.LC6
 337 03d8 00000000 		.word	.LANCHOR0
 339              		.align	2
 340              		.global	CyFxSlFifoApplnStop
 342              	CyFxSlFifoApplnStop:
 343              		@ args = 0, pretend = 0, frame = 16
 344              		@ frame_needed = 0, uses_anonymous_args = 0
 345 03dc 1F402DE9 		stmfd	sp!, {r0, r1, r2, r3, r4, lr}
 346 03e0 98309FE5 		ldr	r3, .L63
 347 03e4 0040A0E3 		mov	r4, #0
 348 03e8 0100A0E3 		mov	r0, #1
 349 03ec 084083E5 		str	r4, [r3, #8]
 350 03f0 FEFFFFEB 		bl	CyU3PUsbFlushEp
 351 03f4 8100A0E3 		mov	r0, #129
 352 03f8 FEFFFFEB 		bl	CyU3PUsbFlushEp
 353 03fc 80009FE5 		ldr	r0, .L63+4
 354 0400 FEFFFFEB 		bl	CyU3PDmaChannelDestroy
 355 0404 7C009FE5 		ldr	r0, .L63+8
 356 0408 FEFFFFEB 		bl	CyU3PDmaChannelDestroy
 357 040c 0C20A0E3 		mov	r2, #12
 358 0410 04008DE2 		add	r0, sp, #4
 359 0414 0410A0E1 		mov	r1, r4
 360 0418 FEFFFFEB 		bl	CyU3PMemSet
 361 041c 0100A0E3 		mov	r0, #1
 362 0420 04108DE2 		add	r1, sp, #4
 363 0424 04408DE5 		str	r4, [sp, #4]
 364 0428 FEFFFFEB 		bl	CyU3PSetEpConfig
 365 042c 002050E2 		subs	r2, r0, #0
 366 0430 0500000A 		beq	.L59
 367 0434 0400A0E3 		mov	r0, #4
 368 0438 4C109FE5 		ldr	r1, .L63+12
 369 043c FEFFFFEB 		bl	CyU3PDebugPrint
 370              	.L60:
 371 0440 6400A0E3 		mov	r0, #100
 372 0444 FEFFFFEB 		bl	_tx_thread_sleep
 373 0448 FCFFFFEA 		b	.L60
 374              	.L59:
 375 044c 8100A0E3 		mov	r0, #129
 376 0450 04108DE2 		add	r1, sp, #4
 377 0454 FEFFFFEB 		bl	CyU3PSetEpConfig
 378 0458 002050E2 		subs	r2, r0, #0
 379 045c 0500000A 		beq	.L58
 380 0460 0400A0E3 		mov	r0, #4
 381 0464 20109FE5 		ldr	r1, .L63+12
 382 0468 FEFFFFEB 		bl	CyU3PDebugPrint
 383              	.L62:
 384 046c 6400A0E3 		mov	r0, #100
 385 0470 FEFFFFEB 		bl	_tx_thread_sleep
 386 0474 FCFFFFEA 		b	.L62
 387              	.L58:
 388 0478 10D08DE2 		add	sp, sp, #16
 389              		@ sp needed
 390 047c 1080BDE8 		ldmfd	sp!, {r4, pc}
 391              	.L64:
 392              		.align	2
 393              	.L63:
 394 0480 00000000 		.word	.LANCHOR0
 395 0484 00000000 		.word	glChHandleSlFifoUtoP
 396 0488 00000000 		.word	glChHandleSlFifoPtoU
 397 048c 8C000000 		.word	.LC4
 399              		.align	2
 400              		.global	CyFxSlFifoApplnUSBSetupCB
 402              	CyFxSlFifoApplnUSBSetupCB:
 403              		@ args = 0, pretend = 0, frame = 8
 404              		@ frame_needed = 0, uses_anonymous_args = 0
 405 0490 F04F2DE9 		stmfd	sp!, {r4, r5, r6, r7, r8, r9, r10, fp, lr}
 406 0494 FF5C00E2 		and	r5, r0, #65280
 407 0498 01A8A0E1 		mov	r10, r1, asl #16
 408 049c 24D04DE2 		sub	sp, sp, #36
 409 04a0 20C8A0E1 		mov	ip, r0, lsr #16
 410 04a4 604000E2 		and	r4, r0, #96
 411 04a8 037000E2 		and	r7, r0, #3
 412 04ac 2554A0E1 		mov	r5, r5, lsr #8
 413 04b0 21B8A0E1 		mov	fp, r1, lsr #16
 414 04b4 2A38A0E1 		mov	r3, r10, lsr #16
 415 04b8 FF2000E2 		and	r2, r0, #255
 416 04bc 20108DE9 		stmib	sp, {r5, ip}
 417 04c0 0C308DE5 		str	r3, [sp, #12]
 418 04c4 0060A0E1 		mov	r6, r0
 419 04c8 0190A0E1 		mov	r9, r1
 420 04cc 00708DE5 		str	r7, [sp]
 421 04d0 10B08DE5 		str	fp, [sp, #16]
 422 04d4 0400A0E3 		mov	r0, #4
 423 04d8 1C129FE5 		ldr	r1, .L90
 424 04dc 0430A0E1 		mov	r3, r4
 425 04e0 1CC08DE5 		str	ip, [sp, #28]
 426 04e4 FEFFFFEB 		bl	CyU3PDebugPrint
 427 04e8 000054E3 		cmp	r4, #0
 428 04ec FF8005E2 		and	r8, r5, #255
 429 04f0 1CC09DE5 		ldr	ip, [sp, #28]
 430 04f4 3E00001A 		bne	.L66
 431 04f8 0400A0E3 		mov	r0, #4
 432 04fc FC119FE5 		ldr	r1, .L90+4
 433 0500 0520A0E1 		mov	r2, r5
 434 0504 0C60A0E1 		mov	r6, ip
 435 0508 FEFFFFEB 		bl	CyU3PDebugPrint
 436 050c 010057E3 		cmp	r7, #1
 437 0510 0F00001A 		bne	.L67
 438 0514 FD3005E2 		and	r3, r5, #253
 439 0518 010053E3 		cmp	r3, #1
 440 051c 0C00001A 		bne	.L67
 441 0520 000056E3 		cmp	r6, #0
 442 0524 0A00001A 		bne	.L67
 443 0528 D4319FE5 		ldr	r3, .L90+8
 444 052c 083093E5 		ldr	r3, [r3, #8]
 445 0530 000053E3 		cmp	r3, #0
 446 0534 0100000A 		beq	.L68
 447 0538 FEFFFFEB 		bl	CyU3PUsbAckSetup
 448 053c 030000EA 		b	.L88
 449              	.L68:
 450 0540 0600A0E1 		mov	r0, r6
 451 0544 0710A0E1 		mov	r1, r7
 452 0548 0620A0E1 		mov	r2, r6
 453 054c FEFFFFEB 		bl	CyU3PUsbStall
 454              	.L88:
 455 0550 0740A0E1 		mov	r4, r7
 456              	.L67:
 457 0554 020057E3 		cmp	r7, #2
 458 0558 01005803 		cmpeq	r8, #1
 459 055c 6300001A 		bne	.L83
 460 0560 000056E3 		cmp	r6, #0
 461 0564 6100001A 		bne	.L83
 462 0568 0400A0E3 		mov	r0, #4
 463 056c 94119FE5 		ldr	r1, .L90+12
 464 0570 0520A0E1 		mov	r2, r5
 465 0574 FEFFFFEB 		bl	CyU3PDebugPrint
 466 0578 84319FE5 		ldr	r3, .L90+8
 467 057c 083093E5 		ldr	r3, [r3, #8]
 468 0580 000053E3 		cmp	r3, #0
 469 0584 5900000A 		beq	.L83
 470 0588 2A48A0E1 		mov	r4, r10, lsr #16
 471 058c 010054E3 		cmp	r4, #1
 472 0590 0700001A 		bne	.L70
 473 0594 70019FE5 		ldr	r0, .L90+16
 474 0598 FEFFFFEB 		bl	CyU3PDmaChannelReset
 475 059c 0400A0E1 		mov	r0, r4
 476 05a0 FEFFFFEB 		bl	CyU3PUsbFlushEp
 477 05a4 0400A0E1 		mov	r0, r4
 478 05a8 FEFFFFEB 		bl	CyU3PUsbResetEp
 479 05ac 58019FE5 		ldr	r0, .L90+16
 480 05b0 080000EA 		b	.L89
 481              	.L70:
 482 05b4 810054E3 		cmp	r4, #129
 483 05b8 0800001A 		bne	.L71
 484 05bc 4C019FE5 		ldr	r0, .L90+20
 485 05c0 FEFFFFEB 		bl	CyU3PDmaChannelReset
 486 05c4 0400A0E1 		mov	r0, r4
 487 05c8 FEFFFFEB 		bl	CyU3PUsbFlushEp
 488 05cc 0400A0E1 		mov	r0, r4
 489 05d0 FEFFFFEB 		bl	CyU3PUsbResetEp
 490 05d4 34019FE5 		ldr	r0, .L90+20
 491              	.L89:
 492 05d8 0610A0E1 		mov	r1, r6
 493 05dc FEFFFFEB 		bl	CyU3PDmaChannelSetXfer
 494              	.L71:
 495 05e0 FF0009E2 		and	r0, r9, #255
 496 05e4 0010A0E3 		mov	r1, #0
 497 05e8 0120A0E3 		mov	r2, #1
 498 05ec FEFFFFEB 		bl	CyU3PUsbStall
 499 05f0 3B0000EA 		b	.L80
 500              	.L66:
 501 05f4 400054E3 		cmp	r4, #64
 502 05f8 3B00001A 		bne	.L79
 503 05fc 0400A0E3 		mov	r0, #4
 504 0600 0C119FE5 		ldr	r1, .L90+24
 505 0604 0520A0E1 		mov	r2, r5
 506 0608 FEFFFFEB 		bl	CyU3PDebugPrint
 507 060c B20058E3 		cmp	r8, #178
 508 0610 1E00001A 		bne	.L73
 509 0614 0400A0E3 		mov	r0, #4
 510 0618 F8109FE5 		ldr	r1, .L90+28
 511 061c FEFFFFEB 		bl	CyU3PDebugPrint
 512 0620 800016E3 		tst	r6, #128
 513 0624 3000001A 		bne	.L79
 514 0628 EC409FE5 		ldr	r4, .L90+32
 515 062c 0B00A0E1 		mov	r0, fp
 516 0630 0410A0E1 		mov	r1, r4
 517 0634 0020A0E3 		mov	r2, #0
 518 0638 FEFFFFEB 		bl	CyU3PUsbGetEP0Data
 519 063c 0220D4E5 		ldrb	r2, [r4, #2]	@ zero_extendqisi2
 520 0640 0330D4E5 		ldrb	r3, [r4, #3]	@ zero_extendqisi2
 521 0644 0228A0E1 		mov	r2, r2, asl #16
 522 0648 032C82E1 		orr	r2, r2, r3, asl #24
 523 064c 0030D4E5 		ldrb	r3, [r4]	@ zero_extendqisi2
 524 0650 C8109FE5 		ldr	r1, .L90+36
 525 0654 032082E1 		orr	r2, r2, r3
 526 0658 0130D4E5 		ldrb	r3, [r4, #1]	@ zero_extendqisi2
 527 065c 0400A0E3 		mov	r0, #4
 528 0660 032482E1 		orr	r2, r2, r3, asl #8
 529 0664 B8309FE5 		ldr	r3, .L90+40
 530 0668 0140A0E3 		mov	r4, #1
 531 066c 002083E5 		str	r2, [r3]
 532 0670 FEFFFFEB 		bl	CyU3PDebugPrint
 533 0674 AC309FE5 		ldr	r3, .L90+44
 534 0678 0410A0E1 		mov	r1, r4
 535 067c 0020A0E3 		mov	r2, #0
 536 0680 A4009FE5 		ldr	r0, .L90+48
 537 0684 004083E5 		str	r4, [r3]
 538 0688 FEFFFFEB 		bl	_txe_event_flags_set
 539 068c 170000EA 		b	.L83
 540              	.L73:
 541 0690 B10058E3 		cmp	r8, #177
 542 0694 1400001A 		bne	.L79
 543 0698 0400A0E3 		mov	r0, #4
 544 069c 8C109FE5 		ldr	r1, .L90+52
 545 06a0 0520A0E1 		mov	r2, r5
 546 06a4 FEFFFFEB 		bl	CyU3PDebugPrint
 547 06a8 800016E3 		tst	r6, #128
 548 06ac 0E00000A 		beq	.L79
 549 06b0 70409FE5 		ldr	r4, .L90+44
 550 06b4 60109FE5 		ldr	r1, .L90+32
 551 06b8 003094E5 		ldr	r3, [r4]
 552 06bc 0B00A0E1 		mov	r0, fp
 553 06c0 0030C1E5 		strb	r3, [r1]
 554 06c4 FEFFFFEB 		bl	CyU3PUsbSendEP0Data
 555 06c8 003094E5 		ldr	r3, [r4]
 556 06cc 000053E3 		cmp	r3, #0
 557 06d0 0300000A 		beq	.L80
 558 06d4 50009FE5 		ldr	r0, .L90+48
 559 06d8 0210A0E3 		mov	r1, #2
 560 06dc 0020A0E3 		mov	r2, #0
 561 06e0 FEFFFFEB 		bl	_txe_event_flags_set
 562              	.L80:
 563 06e4 0140A0E3 		mov	r4, #1
 564 06e8 000000EA 		b	.L83
 565              	.L79:
 566 06ec 0040A0E3 		mov	r4, #0
 567              	.L83:
 568 06f0 0400A0E1 		mov	r0, r4
 569 06f4 24D08DE2 		add	sp, sp, #36
 570              		@ sp needed
 571 06f8 F08FBDE8 		ldmfd	sp!, {r4, r5, r6, r7, r8, r9, r10, fp, pc}
 572              	.L91:
 573              		.align	2
 574              	.L90:
 575 06fc 15010000 		.word	.LC7
 576 0700 7B010000 		.word	.LC8
 577 0704 00000000 		.word	.LANCHOR0
 578 0708 9C010000 		.word	.LC9
 579 070c 00000000 		.word	glChHandleSlFifoUtoP
 580 0710 00000000 		.word	glChHandleSlFifoPtoU
 581 0714 AE010000 		.word	.LC10
 582 0718 CD010000 		.word	.LC11
 583 071c 00000000 		.word	glEp0Buffer
 584 0720 EA010000 		.word	.LC12
 585 0724 00000000 		.word	filelen
 586 0728 00000000 		.word	glConfigDone
 587 072c 00000000 		.word	glFxConfigFpgaAppEvent
 588 0730 FB010000 		.word	.LC13
 590              		.align	2
 591              		.global	CyFxSlFifoApplnUSBEventCB
 593              	CyFxSlFifoApplnUSBEventCB:
 594              		@ args = 0, pretend = 0, frame = 0
 595              		@ frame_needed = 0, uses_anonymous_args = 0
 596 0734 040050E3 		cmp	r0, #4
 597 0738 08402DE9 		stmfd	sp!, {r3, lr}
 598 073c 0C00000A 		beq	.L94
 599 0740 050050E3 		cmp	r0, #5
 600 0744 0200000A 		beq	.L95
 601 0748 010050E3 		cmp	r0, #1
 602 074c 0880BD18 		ldmnefd	sp!, {r3, pc}
 603 0750 070000EA 		b	.L94
 604              	.L95:
 605 0754 30309FE5 		ldr	r3, .L109
 606 0758 083093E5 		ldr	r3, [r3, #8]
 607 075c 000053E3 		cmp	r3, #0
 608 0760 0000000A 		beq	.L96
 609 0764 FEFFFFEB 		bl	CyFxSlFifoApplnStop
 610              	.L96:
 611 0768 FEFFFFEB 		bl	CyU3PUsbLPMDisable
 612 076c 0840BDE8 		ldmfd	sp!, {r3, lr}
 613 0770 FEFFFFEA 		b	CyFxConfigFpgaApplnStart
 614              	.L94:
 615 0774 10309FE5 		ldr	r3, .L109
 616 0778 083093E5 		ldr	r3, [r3, #8]
 617 077c 000053E3 		cmp	r3, #0
 618 0780 0880BD08 		ldmeqfd	sp!, {r3, pc}
 619 0784 0840BDE8 		ldmfd	sp!, {r3, lr}
 620 0788 FEFFFFEA 		b	CyFxSlFifoApplnStop
 621              	.L110:
 622              		.align	2
 623              	.L109:
 624 078c 00000000 		.word	.LANCHOR0
 626              		.align	2
 627              		.global	CyFxApplnLPMRqtCB
 629              	CyFxApplnLPMRqtCB:
 630              		@ args = 0, pretend = 0, frame = 0
 631              		@ frame_needed = 0, uses_anonymous_args = 0
 632              		@ link register save eliminated.
 633 0790 0100A0E3 		mov	r0, #1
 634 0794 1EFF2FE1 		bx	lr
 636              		.align	2
 637              		.global	CyFxSlFifoApplnInit
 639              	CyFxSlFifoApplnInit:
 640              		@ args = 0, pretend = 0, frame = 16
 641              		@ frame_needed = 0, uses_anonymous_args = 0
 642 0798 70402DE9 		stmfd	sp!, {r4, r5, r6, lr}
 643 079c 0230A0E3 		mov	r3, #2
 644 07a0 18D04DE2 		sub	sp, sp, #24
 645 07a4 B830CDE1 		strh	r3, [sp, #8]	@ movhi
 646 07a8 0350A0E3 		mov	r5, #3
 647 07ac 0030A0E3 		mov	r3, #0
 648 07b0 0100A0E3 		mov	r0, #1
 649 07b4 08108DE2 		add	r1, sp, #8
 650 07b8 1450CDE5 		strb	r5, [sp, #20]
 651 07bc 0C308DE5 		str	r3, [sp, #12]
 652 07c0 10308DE5 		str	r3, [sp, #16]
 653 07c4 FEFFFFEB 		bl	CyU3PPibInit
 654 07c8 002050E2 		subs	r2, r0, #0
 655 07cc 0500000A 		beq	.L113
 656 07d0 0400A0E3 		mov	r0, #4
 657 07d4 9C109FE5 		ldr	r1, .L119
 658 07d8 FEFFFFEB 		bl	CyU3PDebugPrint
 659              	.L114:
 660 07dc 6400A0E3 		mov	r0, #100
 661 07e0 FEFFFFEB 		bl	_tx_thread_sleep
 662 07e4 FCFFFFEA 		b	.L114
 663              	.L113:
 664 07e8 8C009FE5 		ldr	r0, .L119+4
 665 07ec FEFFFFEB 		bl	CyU3PGpifLoad
 666 07f0 004050E2 		subs	r4, r0, #0
 667 07f4 0600000A 		beq	.L115
 668 07f8 0400A0E3 		mov	r0, #4
 669 07fc 7C109FE5 		ldr	r1, .L119+8
 670 0800 0420A0E1 		mov	r2, r4
 671 0804 FEFFFFEB 		bl	CyU3PDebugPrint
 672              	.L116:
 673 0808 6400A0E3 		mov	r0, #100
 674 080c FEFFFFEB 		bl	_tx_thread_sleep
 675 0810 FCFFFFEA 		b	.L116
 676              	.L115:
 677 0814 0160A0E3 		mov	r6, #1
 678 0818 011CA0E3 		mov	r1, #256
 679 081c 0620A0E3 		mov	r2, #6
 680 0820 0430A0E1 		mov	r3, r4
 681 0824 00608DE5 		str	r6, [sp]
 682 0828 FEFFFFEB 		bl	CyU3PGpifSocketConfigure
 683 082c 0620A0E3 		mov	r2, #6
 684 0830 4C109FE5 		ldr	r1, .L119+12
 685 0834 0430A0E1 		mov	r3, r4
 686 0838 00608DE5 		str	r6, [sp]
 687 083c 0500A0E1 		mov	r0, r5
 688 0840 FEFFFFEB 		bl	CyU3PGpifSocketConfigure
 689 0844 0400A0E1 		mov	r0, r4
 690 0848 0C10A0E3 		mov	r1, #12
 691 084c FEFFFFEB 		bl	CyU3PGpifSMStart
 692 0850 002050E2 		subs	r2, r0, #0
 693 0854 0500000A 		beq	.L112
 694 0858 0400A0E3 		mov	r0, #4
 695 085c 24109FE5 		ldr	r1, .L119+16
 696 0860 FEFFFFEB 		bl	CyU3PDebugPrint
 697              	.L118:
 698 0864 6400A0E3 		mov	r0, #100
 699 0868 FEFFFFEB 		bl	_tx_thread_sleep
 700 086c FCFFFFEA 		b	.L118
 701              	.L112:
 702 0870 18D08DE2 		add	sp, sp, #24
 703              		@ sp needed
 704 0874 7080BDE8 		ldmfd	sp!, {r4, r5, r6, pc}
 705              	.L120:
 706              		.align	2
 707              	.L119:
 708 0878 18020000 		.word	.LC14
 709 087c 00000000 		.word	.LANCHOR1
 710 0880 47020000 		.word	.LC15
 711 0884 03010000 		.word	259
 712 0888 6E020000 		.word	.LC16
 714              		.align	2
 715              		.global	CyFxSwitchtoslFifo
 717              	CyFxSwitchtoslFifo:
 718              		@ args = 0, pretend = 0, frame = 40
 719              		@ frame_needed = 0, uses_anonymous_args = 0
 720 088c 04E02DE5 		str	lr, [sp, #-4]!
 721 0890 2CD04DE2 		sub	sp, sp, #44
 722 0894 0030A0E3 		mov	r3, #0
 723 0898 0120A0E3 		mov	r2, #1
 724 089c 0D00A0E1 		mov	r0, sp
 725 08a0 0C008DE9 		stmib	sp, {r2, r3}
 726 08a4 0C308DE5 		str	r3, [sp, #12]
 727 08a8 10308DE5 		str	r3, [sp, #16]
 728 08ac 00208DE5 		str	r2, [sp]
 729 08b0 1630CDE5 		strb	r3, [sp, #22]
 730 08b4 18308DE5 		str	r3, [sp, #24]
 731 08b8 1C308DE5 		str	r3, [sp, #28]
 732 08bc 20308DE5 		str	r3, [sp, #32]
 733 08c0 24308DE5 		str	r3, [sp, #36]
 734 08c4 FEFFFFEB 		bl	CyU3PDeviceConfigureIOMatrix
 735 08c8 000050E3 		cmp	r0, #0
 736 08cc 0000000A 		beq	.L121
 737              	.L123:
 738 08d0 FEFFFFEA 		b	.L123
 739              	.L121:
 740 08d4 2CD08DE2 		add	sp, sp, #44
 741              		@ sp needed
 742 08d8 04F09DE4 		ldr	pc, [sp], #4
 744              		.align	2
 745              		.global	SlFifoAppThread_Entry
 747              	SlFifoAppThread_Entry:
 748              		@ args = 0, pretend = 0, frame = 8
 749              		@ frame_needed = 0, uses_anonymous_args = 0
 750 08dc 30402DE9 		stmfd	sp!, {r4, r5, lr}
 751 08e0 9C509FE5 		ldr	r5, .L133
 752 08e4 14D04DE2 		sub	sp, sp, #20
 753 08e8 FEFFFFEB 		bl	CyFxSlFifoApplnDebugInit
 754 08ec FEFFFFEB 		bl	CyFxConfigFpgaApplnInit
 755 08f0 0540A0E1 		mov	r4, r5
 756              	.L126:
 757 08f4 083095E5 		ldr	r3, [r5, #8]
 758 08f8 000053E3 		cmp	r3, #0
 759 08fc FCFFFF0A 		beq	.L126
 760 0900 0030E0E3 		mvn	r3, #0
 761 0904 00308DE5 		str	r3, [sp]
 762 0908 78009FE5 		ldr	r0, .L133+4
 763 090c 0310A0E3 		mov	r1, #3
 764 0910 0120A0E3 		mov	r2, #1
 765 0914 0C308DE2 		add	r3, sp, #12
 766 0918 FEFFFFEB 		bl	_txe_event_flags_get
 767 091c 000050E3 		cmp	r0, #0
 768 0920 1200001A 		bne	.L127
 769 0924 0C309DE5 		ldr	r3, [sp, #12]
 770 0928 010013E3 		tst	r3, #1
 771 092c 0600000A 		beq	.L128
 772 0930 54109FE5 		ldr	r1, .L133+8
 773 0934 0400A0E3 		mov	r0, #4
 774 0938 FEFFFFEB 		bl	CyU3PDebugPrint
 775 093c 4C309FE5 		ldr	r3, .L133+12
 776 0940 000093E5 		ldr	r0, [r3]
 777 0944 FEFFFFEB 		bl	CyFxConfigFpga
 778 0948 080000EA 		b	.L127
 779              	.L128:
 780 094c 020013E3 		tst	r3, #2
 781 0950 0600000A 		beq	.L127
 782 0954 38109FE5 		ldr	r1, .L133+16
 783 0958 0400A0E3 		mov	r0, #4
 784 095c FEFFFFEB 		bl	CyU3PDebugPrint
 785 0960 FEFFFFEB 		bl	CyFxConfigFpgaApplnStop
 786 0964 FEFFFFEB 		bl	CyFxSwitchtoslFifo
 787 0968 FEFFFFEB 		bl	CyFxSlFifoApplnInit
 788 096c FEFFFFEB 		bl	CyFxSlFifoApplnStart
 789              	.L127:
 790 0970 20109FE5 		ldr	r1, .L133+20
 791 0974 0C0094E8 		ldmia	r4, {r2, r3}
 792 0978 0600A0E3 		mov	r0, #6
 793 097c FEFFFFEB 		bl	CyU3PDebugPrint
 794 0980 DBFFFFEA 		b	.L126
 795              	.L134:
 796              		.align	2
 797              	.L133:
 798 0984 00000000 		.word	.LANCHOR0
 799 0988 00000000 		.word	glFxConfigFpgaAppEvent
 800 098c 98020000 		.word	.LC17
 801 0990 00000000 		.word	filelen
 802 0994 B7020000 		.word	.LC18
 803 0998 D8020000 		.word	.LC19
 805              		.align	2
 806              		.global	CyFxApplicationDefine
 808              	CyFxApplicationDefine:
 809              		@ args = 0, pretend = 0, frame = 0
 810              		@ frame_needed = 0, uses_anonymous_args = 0
 811 099c 04E02DE5 		str	lr, [sp, #-4]!
 812 09a0 010BA0E3 		mov	r0, #1024
 813 09a4 24D04DE2 		sub	sp, sp, #36
 814 09a8 FEFFFFEB 		bl	CyU3PMemAlloc
 815 09ac 013BA0E3 		mov	r3, #1024
 816 09b0 04308DE5 		str	r3, [sp, #4]
 817 09b4 0120A0E3 		mov	r2, #1
 818 09b8 0830A0E3 		mov	r3, #8
 819 09bc 08308DE5 		str	r3, [sp, #8]
 820 09c0 0C308DE5 		str	r3, [sp, #12]
 821 09c4 14208DE5 		str	r2, [sp, #20]
 822 09c8 0030A0E3 		mov	r3, #0
 823 09cc A820A0E3 		mov	r2, #168
 824 09d0 18208DE5 		str	r2, [sp, #24]
 825 09d4 10308DE5 		str	r3, [sp, #16]
 826 09d8 20109FE5 		ldr	r1, .L138
 827 09dc 20209FE5 		ldr	r2, .L138+4
 828 09e0 00008DE5 		str	r0, [sp]
 829 09e4 1C009FE5 		ldr	r0, .L138+8
 830 09e8 FEFFFFEB 		bl	_txe_thread_create
 831 09ec 000050E3 		cmp	r0, #0
 832 09f0 0000000A 		beq	.L135
 833              	.L137:
 834 09f4 FEFFFFEA 		b	.L137
 835              	.L135:
 836 09f8 24D08DE2 		add	sp, sp, #36
 837              		@ sp needed
 838 09fc 04F09DE4 		ldr	pc, [sp], #4
 839              	.L139:
 840              		.align	2
 841              	.L138:
 842 0a00 10030000 		.word	.LC20
 843 0a04 00000000 		.word	SlFifoAppThread_Entry
 844 0a08 00000000 		.word	slFifoAppThread
 846              		.comm	seqnum_p,4,4
 847              		.comm	glEp0Buffer,32,1
 848              		.global	glIsApplnActive
 849              		.global	glDMATxCount
 850              		.global	glDMARxCount
 851              		.comm	glChHandleSlFifoPtoU,172,4
 852              		.comm	glChHandleSlFifoUtoP,172,4
 853              		.comm	slFifoAppThread,168,4
 854              		.global	CyFxGpifConfig
 855              		.global	CyFxGpifRegValue
 856              		.global	CyFxGpifWavedataPosition
 857              		.global	CyFxGpifWavedata
 858              		.global	CyFxGpifTransition
 859              		.section	.rodata
 860              		.align	2
 861              		.set	.LANCHOR1,. + 0
 864              	CyFxGpifConfig:
 865 0000 C700     		.short	199
 866 0002 0000     		.space	2
 867 0004 00000000 		.word	CyFxGpifWavedata
 868 0008 00000000 		.word	CyFxGpifWavedataPosition
 869 000c 0700     		.short	7
 870 000e 0000     		.space	2
 871 0010 00000000 		.word	CyFxGpifTransition
 872 0014 4C00     		.short	76
 873 0016 0000     		.space	2
 874 0018 00000000 		.word	CyFxGpifRegValue
 875              		.section	.rodata.str1.1,"aMS",%progbits,1
 876              	.LC0:
 877 0000 0D552074 		.ascii	"\015U to P DMA Callback called\015\012\000"
 877      6F205020 
 877      444D4120 
 877      43616C6C 
 877      6261636B 
 878              	.LC1:
 879 001e 43795533 		.ascii	"CyU3PDmaChannelCommitBuffer failed, Error code = %d"
 879      50446D61 
 879      4368616E 
 879      6E656C43 
 879      6F6D6D69 
 880 0051 0A00     		.ascii	"\012\000"
 881              	.LC2:
 882 0053 0D502074 		.ascii	"\015P to U DMA Callback called\015\012\000"
 882      6F205520 
 882      444D4120 
 882      43616C6C 
 882      6261636B 
 883              	.LC3:
 884 0071 4572726F 		.ascii	"Error! Invalid USB speed.\012\000"
 884      72212049 
 884      6E76616C 
 884      69642055 
 884      53422073 
 885              	.LC4:
 886 008c 43795533 		.ascii	"CyU3PSetEpConfig failed, Error code = %d\012\000"
 886      50536574 
 886      4570436F 
 886      6E666967 
 886      20666169 
 887              	.LC5:
 888 00b6 43795533 		.ascii	"CyU3PDmaChannelCreate failed, Error code = %d\012\000"
 888      50446D61 
 888      4368616E 
 888      6E656C43 
 888      72656174 
 889              	.LC6:
 890 00e5 43795533 		.ascii	"CyU3PDmaChannelSetXfer Failed, Error code = %d\012\000"
 890      50446D61 
 890      4368616E 
 890      6E656C53 
 890      65745866 
 891              	.LC7:
 892 0115 0D092062 		.ascii	"\015\011 bReqType: %X\015\012\011 bType: %X\015\012"
 892      52657154 
 892      7970653A 
 892      2025580D 
 892      0A092062 
 893 0133 09206254 		.ascii	"\011 bTarget: %X\015\012\011 bRequest: %X\015\012\011"
 893      61726765 
 893      743A2025 
 893      580D0A09 
 893      20625265 
 894 0153 2056616C 		.ascii	" Value: %d\015\012\011 Index: %d\015\012\011 Length"
 894      75653A20 
 894      25640D0A 
 894      0920496E 
 894      6465783A 
 895 0174 3A202564 		.ascii	": %d\015\012\000"
 895      0D0A00
 896              	.LC8:
 897 017b 0D537461 		.ascii	"\015Standard Request received: %X\015\012\000"
 897      6E646172 
 897      64205265 
 897      71756573 
 897      74207265 
 898              	.LC9:
 899 019c 0D09434C 		.ascii	"\015\011CLEAR_FEATURE\015\012\000"
 899      4541525F 
 899      46454154 
 899      5552450D 
 899      0A00
 900              	.LC10:
 901 01ae 0D56656E 		.ascii	"\015Vendor Request received: %X\015\012\000"
 901      646F7220 
 901      52657175 
 901      65737420 
 901      72656365 
 902              	.LC11:
 903 01cd 0D09564E 		.ascii	"\015\011VND_CMD_SLAVESER_CFGLOAD\015\012\000"
 903      445F434D 
 903      445F534C 
 903      41564553 
 903      45525F43 
 904              	.LC12:
 905 01ea 0D096669 		.ascii	"\015\011filelen = %d\015\012\000"
 905      6C656C65 
 905      6E203D20 
 905      25640D0A 
 905      00
 906              	.LC13:
 907 01fb 0D09564E 		.ascii	"\015\011VND_CMD_SLAVESER_CFGSTAT\015\012\000"
 907      445F434D 
 907      445F534C 
 907      41564553 
 907      45525F43 
 908              	.LC14:
 909 0218 502D706F 		.ascii	"P-port Initialization failed, Error Code = %d\012\000"
 909      72742049 
 909      6E697469 
 909      616C697A 
 909      6174696F 
 910              	.LC15:
 911 0247 43795533 		.ascii	"CyU3PGpifLoad failed, Error Code = %d\012\000"
 911      50477069 
 911      664C6F61 
 911      64206661 
 911      696C6564 
 912              	.LC16:
 913 026e 43795533 		.ascii	"CyU3PGpifSMStart failed, Error Code = %d\012\000"
 913      50477069 
 913      66534D53 
 913      74617274 
 913      20666169 
 914              	.LC17:
 915 0298 0D537461 		.ascii	"\015Start Configuration of FPGA\015\012\000"
 915      72742043 
 915      6F6E6669 
 915      67757261 
 915      74696F6E 
 916              	.LC18:
 917 02b7 0D537769 		.ascii	"\015Switch to SlaveFIFO interface\015\012\000"
 917      74636820 
 917      746F2053 
 917      6C617665 
 917      4649464F 
 918              	.LC19:
 919 02d8 44617461 		.ascii	"Data tracker: buffers received: %d, buffers sent: %"
 919      20747261 
 919      636B6572 
 919      3A206275 
 919      66666572 
 920 030b 642E0D0A 		.ascii	"d.\015\012\000"
 920      00
 921              	.LC20:
 922 0310 32313A53 		.ascii	"21:Slave_FIFO_sync\000"
 922      6C617665 
 922      5F464946 
 922      4F5F7379 
 922      6E6300
 923              		.data
 924              		.align	2
 927              	CyFxGpifRegValue:
 928 0000 80030080 		.word	-2147482752
 929 0004 AC100000 		.word	4268
 930 0008 02000701 		.word	17235970
 931 000c 44000000 		.word	68
 932 0010 00000000 		.word	0
 933 0014 00000000 		.word	0
 934 0018 00000000 		.word	0
 935 001c 82000000 		.word	130
 936 0020 82070000 		.word	1922
 937 0024 00150100 		.word	70912
 938 0028 8FFE0000 		.word	65167
 939 002c FF010000 		.word	511
 940 0030 00000000 		.word	0
 941 0034 00000000 		.word	0
 942 0038 00000000 		.word	0
 943 003c 00000000 		.word	0
 944 0040 00000000 		.word	0
 945 0044 10000000 		.word	16
 946 0048 14000000 		.word	20
 947 004c 13000000 		.word	19
 948 0050 00000000 		.word	0
 949 0054 17000000 		.word	23
 950 0058 00000000 		.word	0
 951 005c 00000000 		.word	0
 952 0060 00000000 		.word	0
 953 0064 00000000 		.word	0
 954 0068 00000000 		.word	0
 955 006c 00000000 		.word	0
 956 0070 00000000 		.word	0
 957 0074 06000000 		.word	6
 958 0078 00000000 		.word	0
 959 007c FFFF0000 		.word	65535
 960 0080 0A010000 		.word	266
 961 0084 00000000 		.word	0
 962 0088 FFFF0000 		.word	65535
 963 008c 00000000 		.word	0
 964 0090 FFFF0000 		.word	65535
 965 0094 0A010000 		.word	266
 966 0098 00000000 		.word	0
 967 009c FFFF0000 		.word	65535
 968 00a0 00000000 		.word	0
 969 00a4 00000000 		.word	0
 970 00a8 00000000 		.word	0
 971 00ac 00000000 		.word	0
 972 00b0 00000000 		.word	0
 973 00b4 00000000 		.word	0
 974 00b8 00000000 		.word	0
 975 00bc 00000000 		.word	0
 976 00c0 00000000 		.word	0
 977 00c4 00000000 		.word	0
 978 00c8 00000000 		.word	0
 979 00cc 00000000 		.word	0
 980 00d0 00000000 		.word	0
 981 00d4 00000000 		.word	0
 982 00d8 00000000 		.word	0
 983 00dc 00000000 		.word	0
 984 00e0 00000000 		.word	0
 985 00e4 00000000 		.word	0
 986 00e8 00000000 		.word	0
 987 00ec 00000000 		.word	0
 988 00f0 00000000 		.word	0
 989 00f4 00000000 		.word	0
 990 00f8 00000000 		.word	0
 991 00fc 00040180 		.word	-2147417088
 992 0100 01040180 		.word	-2147417087
 993 0104 02040180 		.word	-2147417086
 994 0108 03040180 		.word	-2147417085
 995 010c 00000000 		.word	0
 996 0110 00000000 		.word	0
 997 0114 00000000 		.word	0
 998 0118 00000C00 		.word	786432
 999 011c 00000000 		.word	0
 1000 0120 00000000 		.word	0
 1001 0124 00000000 		.word	0
 1002 0128 00000000 		.word	0
 1003 012c C1FFFFFF 		.word	-63
 1006              	CyFxGpifWavedataPosition:
 1007 0130 00       		.byte	0
 1008 0131 01       		.byte	1
 1009 0132 00       		.byte	0
 1010 0133 02       		.byte	2
 1011 0134 00       		.byte	0
 1012 0135 00       		.byte	0
 1013 0136 03       		.byte	3
 1014 0137 04       		.byte	4
 1015 0138 04       		.byte	4
 1016 0139 04       		.byte	4
 1017 013a 04       		.byte	4
 1018 013b 04       		.byte	4
 1019 013c 04       		.byte	4
 1020 013d 04       		.byte	4
 1021 013e 04       		.byte	4
 1022 013f 04       		.byte	4
 1023 0140 04       		.byte	4
 1024 0141 04       		.byte	4
 1025 0142 04       		.byte	4
 1026 0143 04       		.byte	4
 1027 0144 04       		.byte	4
 1028 0145 04       		.byte	4
 1029 0146 04       		.byte	4
 1030 0147 04       		.byte	4
 1031 0148 04       		.byte	4
 1032 0149 04       		.byte	4
 1033 014a 04       		.byte	4
 1034 014b 04       		.byte	4
 1035 014c 04       		.byte	4
 1036 014d 04       		.byte	4
 1037 014e 04       		.byte	4
 1038 014f 04       		.byte	4
 1039 0150 04       		.byte	4
 1040 0151 04       		.byte	4
 1041 0152 04       		.byte	4
 1042 0153 04       		.byte	4
 1043 0154 04       		.byte	4
 1044 0155 04       		.byte	4
 1045 0156 04       		.byte	4
 1046 0157 04       		.byte	4
 1047 0158 04       		.byte	4
 1048 0159 04       		.byte	4
 1049 015a 04       		.byte	4
 1050 015b 04       		.byte	4
 1051 015c 04       		.byte	4
 1052 015d 04       		.byte	4
 1053 015e 04       		.byte	4
 1054 015f 04       		.byte	4
 1055 0160 04       		.byte	4
 1056 0161 04       		.byte	4
 1057 0162 04       		.byte	4
 1058 0163 04       		.byte	4
 1059 0164 04       		.byte	4
 1060 0165 04       		.byte	4
 1061 0166 04       		.byte	4
 1062 0167 04       		.byte	4
 1063 0168 04       		.byte	4
 1064 0169 04       		.byte	4
 1065 016a 04       		.byte	4
 1066 016b 04       		.byte	4
 1067 016c 04       		.byte	4
 1068 016d 04       		.byte	4
 1069 016e 04       		.byte	4
 1070 016f 04       		.byte	4
 1071 0170 00       		.byte	0
 1072 0171 05       		.byte	5
 1073 0172 00       		.byte	0
 1074 0173 02       		.byte	2
 1075 0174 00       		.byte	0
 1076 0175 00       		.byte	0
 1077 0176 05       		.byte	5
 1078 0177 04       		.byte	4
 1079 0178 04       		.byte	4
 1080 0179 04       		.byte	4
 1081 017a 04       		.byte	4
 1082 017b 04       		.byte	4
 1083 017c 04       		.byte	4
 1084 017d 04       		.byte	4
 1085 017e 04       		.byte	4
 1086 017f 04       		.byte	4
 1087 0180 04       		.byte	4
 1088 0181 04       		.byte	4
 1089 0182 04       		.byte	4
 1090 0183 04       		.byte	4
 1091 0184 04       		.byte	4
 1092 0185 04       		.byte	4
 1093 0186 04       		.byte	4
 1094 0187 04       		.byte	4
 1095 0188 04       		.byte	4
 1096 0189 04       		.byte	4
 1097 018a 04       		.byte	4
 1098 018b 04       		.byte	4
 1099 018c 04       		.byte	4
 1100 018d 04       		.byte	4
 1101 018e 04       		.byte	4
 1102 018f 04       		.byte	4
 1103 0190 04       		.byte	4
 1104 0191 04       		.byte	4
 1105 0192 04       		.byte	4
 1106 0193 04       		.byte	4
 1107 0194 04       		.byte	4
 1108 0195 04       		.byte	4
 1109 0196 04       		.byte	4
 1110 0197 04       		.byte	4
 1111 0198 04       		.byte	4
 1112 0199 04       		.byte	4
 1113 019a 04       		.byte	4
 1114 019b 04       		.byte	4
 1115 019c 04       		.byte	4
 1116 019d 04       		.byte	4
 1117 019e 04       		.byte	4
 1118 019f 04       		.byte	4
 1119 01a0 04       		.byte	4
 1120 01a1 04       		.byte	4
 1121 01a2 04       		.byte	4
 1122 01a3 04       		.byte	4
 1123 01a4 04       		.byte	4
 1124 01a5 04       		.byte	4
 1125 01a6 04       		.byte	4
 1126 01a7 04       		.byte	4
 1127 01a8 04       		.byte	4
 1128 01a9 04       		.byte	4
 1129 01aa 04       		.byte	4
 1130 01ab 04       		.byte	4
 1131 01ac 04       		.byte	4
 1132 01ad 04       		.byte	4
 1133 01ae 04       		.byte	4
 1134 01af 04       		.byte	4
 1135 01b0 00       		.byte	0
 1136 01b1 06       		.byte	6
 1137 01b2 00       		.byte	0
 1138 01b3 02       		.byte	2
 1139 01b4 00       		.byte	0
 1140 01b5 00       		.byte	0
 1141 01b6 06       		.byte	6
 1142 01b7 04       		.byte	4
 1143 01b8 04       		.byte	4
 1144 01b9 04       		.byte	4
 1145 01ba 04       		.byte	4
 1146 01bb 04       		.byte	4
 1147 01bc 04       		.byte	4
 1148 01bd 04       		.byte	4
 1149 01be 04       		.byte	4
 1150 01bf 04       		.byte	4
 1151 01c0 04       		.byte	4
 1152 01c1 04       		.byte	4
 1153 01c2 04       		.byte	4
 1154 01c3 04       		.byte	4
 1155 01c4 04       		.byte	4
 1156 01c5 04       		.byte	4
 1157 01c6 04       		.byte	4
 1158 01c7 04       		.byte	4
 1159 01c8 04       		.byte	4
 1160 01c9 04       		.byte	4
 1161 01ca 04       		.byte	4
 1162 01cb 04       		.byte	4
 1163 01cc 04       		.byte	4
 1164 01cd 04       		.byte	4
 1165 01ce 04       		.byte	4
 1166 01cf 04       		.byte	4
 1167 01d0 04       		.byte	4
 1168 01d1 04       		.byte	4
 1169 01d2 04       		.byte	4
 1170 01d3 04       		.byte	4
 1171 01d4 04       		.byte	4
 1172 01d5 04       		.byte	4
 1173 01d6 04       		.byte	4
 1174 01d7 04       		.byte	4
 1175 01d8 04       		.byte	4
 1176 01d9 04       		.byte	4
 1177 01da 04       		.byte	4
 1178 01db 04       		.byte	4
 1179 01dc 04       		.byte	4
 1180 01dd 04       		.byte	4
 1181 01de 04       		.byte	4
 1182 01df 04       		.byte	4
 1183 01e0 04       		.byte	4
 1184 01e1 04       		.byte	4
 1185 01e2 04       		.byte	4
 1186 01e3 04       		.byte	4
 1187 01e4 04       		.byte	4
 1188 01e5 04       		.byte	4
 1189 01e6 04       		.byte	4
 1190 01e7 04       		.byte	4
 1191 01e8 04       		.byte	4
 1192 01e9 04       		.byte	4
 1193 01ea 04       		.byte	4
 1194 01eb 04       		.byte	4
 1195 01ec 04       		.byte	4
 1196 01ed 04       		.byte	4
 1197 01ee 04       		.byte	4
 1198 01ef 04       		.byte	4
 1199 01f0 00       		.byte	0
 1200 01f1 07       		.byte	7
 1201 01f2 00       		.byte	0
 1202 01f3 02       		.byte	2
 1203 01f4 00       		.byte	0
 1204 01f5 00       		.byte	0
 1205 01f6 07       		.byte	7
 1206 01f7 00       		.space	1
 1209              	CyFxGpifWavedata:
 1210 01f8 0160081E 		.word	503865345
 1211 01fc C4020300 		.word	197316
 1212 0200 00000080 		.word	-2147483648
 1213 0204 00000000 		.word	0
 1214 0208 00000000 		.word	0
 1215 020c 00000000 		.word	0
 1216 0210 0203084E 		.word	1309147906
 1217 0214 00030000 		.word	768
 1218 0218 00000080 		.word	-2147483648
 1219 021c 0660081E 		.word	503865350
 1220 0220 C4020300 		.word	197316
 1221 0224 00000080 		.word	-2147483648
 1222 0228 0160081E 		.word	503865345
 1223 022c C4020300 		.word	197316
 1224 0230 00000080 		.word	-2147483648
 1225 0234 0407044E 		.word	1308886788
 1226 0238 00030020 		.word	536871680
 1227 023c 000010C0 		.word	-1072693248
 1228 0240 0203084E 		.word	1309147906
 1229 0244 00030000 		.word	768
 1230 0248 00000080 		.word	-2147483648
 1231 024c 0160081E 		.word	503865345
 1232 0250 C4020300 		.word	197316
 1233 0254 00000080 		.word	-2147483648
 1234 0258 00000000 		.word	0
 1235 025c 00000000 		.word	0
 1236 0260 00000000 		.word	0
 1237 0264 00000000 		.word	0
 1238 0268 00000000 		.word	0
 1239 026c 00000000 		.word	0
 1240 0270 00000000 		.word	0
 1241 0274 00000000 		.word	0
 1242 0278 00000000 		.word	0
 1243 027c 0587733E 		.word	1047758597
 1244 0280 00030000 		.word	768
 1245 0284 000010C0 		.word	-1072693248
 1246 0288 00000000 		.word	0
 1247 028c 00000000 		.word	0
 1248 0290 00000000 		.word	0
 1249 0294 0327005E 		.word	1577068291
 1250 0298 0C030320 		.word	537068300
 1251 029c 00000080 		.word	-2147483648
 1252 02a0 00000000 		.word	0
 1253 02a4 00000000 		.word	0
 1254 02a8 00000000 		.word	0
 1255 02ac 0407044E 		.word	1308886788
 1256 02b0 00030020 		.word	536871680
 1257 02b4 000010C0 		.word	-1072693248
 1260              	CyFxGpifTransition:
 1261 02b8 0000     		.short	0
 1262 02ba 8080     		.short	-32640
 1263 02bc 2222     		.short	8738
 1264 02be 5555     		.short	21845
 1265 02c0 7F7F     		.short	32639
 1266 02c2 1F1F     		.short	7967
 1267 02c4 8888     		.short	-30584
 1268 02c6 0000     		.bss
 1269              		.align	2
 1270              		.set	.LANCHOR0,. + 0
 1273              	glDMARxCount:
 1274 0000 00000000 		.space	4
 1277              	glDMATxCount:
 1278 0004 00000000 		.space	4
 1281              	glIsApplnActive:
 1282 0008 00000000 		.space	4
 1283              		.ident	"GCC: (Sourcery CodeBench Lite 2013.11-24) 4.8.1"